

Microchip MPLAB XC8 Assembler V3.10 build 20250813170317 
                                                                                               Tue Nov 25 23:11:30 2025

Microchip MPLAB XC8 C Compiler v3.10 (Free license) build 20250813170317 Og1 
     1                           	processor	16F877A
     2                           	pagewidth 120
     3                           	opt	flic
     4                           	psect	strings,global,class=STRING,space=0,delta=2,noexec
     5                           	psect	cinit,global,class=CODE,space=0,merge=1,delta=2
     6                           	psect	bssBANK0,global,class=BANK0,space=1,delta=1,noexec
     7                           	psect	bssBANK1,global,class=BANK1,space=1,delta=1,noexec
     8                           	psect	clrtext,global,class=CODE,space=0,delta=2
     9                           	psect	cstackBANK1,global,class=BANK1,space=1,delta=1,noexec
    10                           	psect	cstackCOMMON,global,class=COMMON,space=1,delta=1,noexec
    11                           	psect	cstackBANK0,global,class=BANK0,space=1,delta=1,noexec
    12                           	psect	maintext,global,class=CODE,space=0,split=1,delta=2
    13                           	psect	text1,local,class=CODE,space=0,merge=1,delta=2,group=3
    14                           	psect	text2,local,class=CODE,space=0,merge=1,delta=2,group=1
    15                           	psect	text3,local,class=CODE,space=0,merge=1,delta=2,group=1
    16                           	psect	text4,local,class=CODE,space=0,merge=1,delta=2,group=1
    17                           	psect	text5,local,class=CODE,space=0,merge=1,delta=2,group=1
    18                           	psect	text6,local,class=CODE,space=0,merge=1,delta=2,group=3
    19                           	psect	text7,local,class=CODE,space=0,merge=1,delta=2,group=3
    20                           	psect	text8,local,class=CODE,space=0,merge=1,delta=2,group=3
    21                           	psect	text9,local,class=CODE,space=0,merge=1,delta=2,group=2
    22                           	psect	text10,local,class=CODE,space=0,merge=1,delta=2,group=2
    23                           	psect	text11,local,class=CODE,space=0,merge=1,delta=2,group=1
    24                           	psect	text12,local,class=CODE,space=0,merge=1,delta=2,group=2
    25                           	psect	text13,local,class=CODE,space=0,merge=1,delta=2
    26                           	psect	text14,local,class=CODE,space=0,merge=1,delta=2
    27                           	psect	text15,local,class=CODE,space=0,merge=1,delta=2
    28                           	psect	text16,local,class=CODE,space=0,merge=1,delta=2
    29                           	psect	text17,local,class=CODE,space=0,merge=1,delta=2
    30                           	psect	text18,local,class=CODE,space=0,merge=1,delta=2
    31                           	psect	text19,local,class=CODE,space=0,merge=1,delta=2,group=2
    32                           	psect	text20,local,class=CODE,space=0,merge=1,delta=2,group=2
    33                           	dabs	1,0x7E,2
    34     0000                     
    35                           ; Generated 12/10/2023 GMT
    36                           ; 
    37                           ; Copyright © 2023, Microchip Technology Inc. and its subsidiaries ("Microchip")
    38                           ; All rights reserved.
    39                           ; 
    40                           ; This software is developed by Microchip Technology Inc. and its subsidiaries ("Microch
      +                          ip").
    41                           ; 
    42                           ; Redistribution and use in source and binary forms, with or without modification, are
    43                           ; permitted provided that the following conditions are met:
    44                           ; 
    45                           ;     1. Redistributions of source code must retain the above copyright notice, this lis
      +                          t of
    46                           ;        conditions and the following disclaimer.
    47                           ; 
    48                           ;     2. Redistributions in binary form must reproduce the above copyright notice, this 
      +                          list
    49                           ;        of conditions and the following disclaimer in the documentation and/or other
    50                           ;        materials provided with the distribution. Publication is not required when
    51                           ;        this file is used in an embedded application.
    52                           ; 
    53                           ;     3. Microchip's name may not be used to endorse or promote products derived from th
      +                          is
    54                           ;        software without specific prior written permission.
    55                           ; 
    56                           ; THIS SOFTWARE IS PROVIDED BY MICROCHIP "AS IS" AND ANY EXPRESS OR IMPLIED WARRANTIES,
    57                           ; INCLUDING, BUT NOT LIMITED TO, THE IMPLIED WARRANTIES OF MERCHANTABILITY AND FITNESS F
      +                          OR
    58                           ; PURPOSE ARE DISCLAIMED.  IN NO EVENT SHALL MICROCHIP BE LIABLE FOR ANY DIRECT, INDIREC
      +                          T,
    59                           ; INCIDENTAL, SPECIAL, EXEMPLARY, OR CONSEQUENTIAL DAMAGES (INCLUDING BUT NOT LIMITED TO
    60                           ; PROCUREMENT OF SUBSTITUTE GOODS OR SERVICES; LOSS OF USE, DATA OR PROFITS; OR BUSINESS
    61                           ; INTERRUPTION) HOWSOEVER CAUSED AND ON ANY THEORY OF LIABILITY, WHETHER IN CONTRACT, ST
      +                          RICT
    62                           ; LIABILITY, OR TORT (INCLUDING NEGLIGENCE OR OTHERWISE) ARISING IN ANY WAY OUT OF THE U
      +                          SE OF
    63                           ; THIS SOFTWARE, EVEN IF ADVISED OF THE POSSIBILITY OF SUCH DAMAGE.
    64                           ; 
    65                           ; 
    66                           ; Code-generator required, PIC16F877A Definitions
    67                           ; 
    68                           ; SFR Addresses
    69     0004                     fsr             equ	4
    70     0004                     fsr0            equ	4
    71     0000                     indf            equ	0
    72     0000                     indf0           equ	0
    73     0002                     pc              equ	2
    74     0002                     pcl             equ	2
    75     000A                     pclath          equ	10
    76     0003                     status          equ	3
    77     0000                     INDF            equ	0	;# 
    78     0001                     TMR0            equ	1	;# 
    79     0002                     PCL             equ	2	;# 
    80     0003                     STATUS          equ	3	;# 
    81     0004                     FSR             equ	4	;# 
    82     0005                     PORTA           equ	5	;# 
    83     0006                     PORTB           equ	6	;# 
    84     0007                     PORTC           equ	7	;# 
    85     0008                     PORTD           equ	8	;# 
    86     0009                     PORTE           equ	9	;# 
    87     000A                     PCLATH          equ	10	;# 
    88     000B                     INTCON          equ	11	;# 
    89     000C                     PIR1            equ	12	;# 
    90     000D                     PIR2            equ	13	;# 
    91     000E                     TMR1            equ	14	;# 
    92     000E                     TMR1L           equ	14	;# 
    93     000F                     TMR1H           equ	15	;# 
    94     0010                     T1CON           equ	16	;# 
    95     0011                     TMR2            equ	17	;# 
    96     0012                     T2CON           equ	18	;# 
    97     0013                     SSPBUF          equ	19	;# 
    98     0014                     SSPCON          equ	20	;# 
    99     0015                     CCPR1           equ	21	;# 
   100     0015                     CCPR1L          equ	21	;# 
   101     0016                     CCPR1H          equ	22	;# 
   102     0017                     CCP1CON         equ	23	;# 
   103     0018                     RCSTA           equ	24	;# 
   104     0019                     TXREG           equ	25	;# 
   105     001A                     RCREG           equ	26	;# 
   106     001B                     CCPR2           equ	27	;# 
   107     001B                     CCPR2L          equ	27	;# 
   108     001C                     CCPR2H          equ	28	;# 
   109     001D                     CCP2CON         equ	29	;# 
   110     001E                     ADRESH          equ	30	;# 
   111     001F                     ADCON0          equ	31	;# 
   112     0081                     OPTION_REG      equ	129	;# 
   113     0085                     TRISA           equ	133	;# 
   114     0086                     TRISB           equ	134	;# 
   115     0087                     TRISC           equ	135	;# 
   116     0088                     TRISD           equ	136	;# 
   117     0089                     TRISE           equ	137	;# 
   118     008C                     PIE1            equ	140	;# 
   119     008D                     PIE2            equ	141	;# 
   120     008E                     PCON            equ	142	;# 
   121     0091                     SSPCON2         equ	145	;# 
   122     0092                     PR2             equ	146	;# 
   123     0093                     SSPADD          equ	147	;# 
   124     0094                     SSPSTAT         equ	148	;# 
   125     0098                     TXSTA           equ	152	;# 
   126     0099                     SPBRG           equ	153	;# 
   127     009C                     CMCON           equ	156	;# 
   128     009D                     CVRCON          equ	157	;# 
   129     009E                     ADRESL          equ	158	;# 
   130     009F                     ADCON1          equ	159	;# 
   131     010C                     EEDATA          equ	268	;# 
   132     010D                     EEADR           equ	269	;# 
   133     010E                     EEDATH          equ	270	;# 
   134     010F                     EEADRH          equ	271	;# 
   135     018C                     EECON1          equ	396	;# 
   136     018D                     EECON2          equ	397	;# 
   137     0000                     INDF            equ	0	;# 
   138     0001                     TMR0            equ	1	;# 
   139     0002                     PCL             equ	2	;# 
   140     0003                     STATUS          equ	3	;# 
   141     0004                     FSR             equ	4	;# 
   142     0005                     PORTA           equ	5	;# 
   143     0006                     PORTB           equ	6	;# 
   144     0007                     PORTC           equ	7	;# 
   145     0008                     PORTD           equ	8	;# 
   146     0009                     PORTE           equ	9	;# 
   147     000A                     PCLATH          equ	10	;# 
   148     000B                     INTCON          equ	11	;# 
   149     000C                     PIR1            equ	12	;# 
   150     000D                     PIR2            equ	13	;# 
   151     000E                     TMR1            equ	14	;# 
   152     000E                     TMR1L           equ	14	;# 
   153     000F                     TMR1H           equ	15	;# 
   154     0010                     T1CON           equ	16	;# 
   155     0011                     TMR2            equ	17	;# 
   156     0012                     T2CON           equ	18	;# 
   157     0013                     SSPBUF          equ	19	;# 
   158     0014                     SSPCON          equ	20	;# 
   159     0015                     CCPR1           equ	21	;# 
   160     0015                     CCPR1L          equ	21	;# 
   161     0016                     CCPR1H          equ	22	;# 
   162     0017                     CCP1CON         equ	23	;# 
   163     0018                     RCSTA           equ	24	;# 
   164     0019                     TXREG           equ	25	;# 
   165     001A                     RCREG           equ	26	;# 
   166     001B                     CCPR2           equ	27	;# 
   167     001B                     CCPR2L          equ	27	;# 
   168     001C                     CCPR2H          equ	28	;# 
   169     001D                     CCP2CON         equ	29	;# 
   170     001E                     ADRESH          equ	30	;# 
   171     001F                     ADCON0          equ	31	;# 
   172     0081                     OPTION_REG      equ	129	;# 
   173     0085                     TRISA           equ	133	;# 
   174     0086                     TRISB           equ	134	;# 
   175     0087                     TRISC           equ	135	;# 
   176     0088                     TRISD           equ	136	;# 
   177     0089                     TRISE           equ	137	;# 
   178     008C                     PIE1            equ	140	;# 
   179     008D                     PIE2            equ	141	;# 
   180     008E                     PCON            equ	142	;# 
   181     0091                     SSPCON2         equ	145	;# 
   182     0092                     PR2             equ	146	;# 
   183     0093                     SSPADD          equ	147	;# 
   184     0094                     SSPSTAT         equ	148	;# 
   185     0098                     TXSTA           equ	152	;# 
   186     0099                     SPBRG           equ	153	;# 
   187     009C                     CMCON           equ	156	;# 
   188     009D                     CVRCON          equ	157	;# 
   189     009E                     ADRESL          equ	158	;# 
   190     009F                     ADCON1          equ	159	;# 
   191     010C                     EEDATA          equ	268	;# 
   192     010D                     EEADR           equ	269	;# 
   193     010E                     EEDATH          equ	270	;# 
   194     010F                     EEADRH          equ	271	;# 
   195     018C                     EECON1          equ	396	;# 
   196     018D                     EECON2          equ	397	;# 
   197     001E                     _ADRESH         set	30
   198     001F                     _ADCON0         set	31
   199     0008                     _PORTD          set	8
   200     0006                     _PORTBbits      set	6
   201     00FA                     _GO_nDONE       set	250
   202     0086                     _TRISB          set	134
   203     0088                     _TRISD          set	136
   204     009E                     _ADRESL         set	158
   205     009F                     _ADCON1         set	159
   206     0085                     _TRISA          set	133
   207                           
   208                           	psect	strings
   209     0003                     __pstrings:
   210     0003                     stringtab:
   211     0003                     __stringtab:
   212     0003                     stringcode:	
   213                           ;	String table - string pointers are 1 byte each
   214                           
   215     0003                     stringdir:
   216     0003  3000               	movlw	high stringdir
   217     0004  008A               	movwf	10
   218     0005  0804               	movf	4,w
   219     0006  0A84               	incf	4,f
   220     0007  0782               	addwf	2,f
   221     0008                     __stringbase:
   222     0008  3400               	retlw	0
   223     0009                     __end_of__stringtab:
   224     0009                     STR_1:
   225     0009  3452               	retlw	82	;'R'
   226     000A  3441               	retlw	65	;'A'
   227     000B  3457               	retlw	87	;'W'
   228     000C  343A               	retlw	58	;':'
   229     000D  3425               	retlw	37	;'%'
   230     000E  3434               	retlw	52	;'4'
   231     000F  3475               	retlw	117	;'u'
   232     0010  3400               	retlw	0
   233     0011                     STR_2:
   234     0011  346D               	retlw	109	;'m'
   235     0012  3456               	retlw	86	;'V'
   236     0013  343A               	retlw	58	;':'
   237     0014  3425               	retlw	37	;'%'
   238     0015  3434               	retlw	52	;'4'
   239     0016  3475               	retlw	117	;'u'
   240     0017  3400               	retlw	0
   241                           
   242                           	psect	cinit
   243     07EC                     start_initialization:	
   244                           ; #config settings
   245                           
   246     07EC                     __initialization:
   247                           
   248                           ; Clear objects allocated to BANK0
   249     07EC  1283               	bcf	3,5	;RP0=0, select bank0
   250     07ED  1303               	bcf	3,6	;RP1=0, select bank0
   251     07EE  01DC               	clrf	__pbssBANK0& (0+127)
   252     07EF  01DD               	clrf	(__pbssBANK0+1)& (0+127)
   253     07F0  01DE               	clrf	(__pbssBANK0+2)& (0+127)
   254     07F1  01DF               	clrf	(__pbssBANK0+3)& (0+127)
   255     07F2  01E0               	clrf	(__pbssBANK0+4)& (0+127)
   256                           
   257                           ; Clear objects allocated to BANK1
   258     07F3  1383               	bcf	3,7	;select IRP bank0
   259     07F4  30A0               	movlw	low __pbssBANK1
   260     07F5  0084               	movwf	4
   261     07F6  30C0               	movlw	low (__pbssBANK1+32)
   262     07F7  120A  118A  2258  120A  118A  	fcall	clear_ram0
   263     07FC                     end_of_initialization:	
   264                           ;End of C runtime variable initialization code
   265                           
   266     07FC                     __end_of__initialization:
   267     07FC  0183               	clrf	3
   268     07FD  120A  118A  2F29   	ljmp	_main	;jump to C main() function
   269                           
   270                           	psect	bssBANK0
   271     005C                     __pbssBANK0:
   272     005C                     _width:
   273     005C                     	ds	2
   274     005E                     _prec:
   275     005E                     	ds	2
   276     0060                     _flags:
   277     0060                     	ds	1
   278                           
   279                           	psect	bssBANK1
   280     00A0                     __pbssBANK1:
   281     00A0                     _dbuf:
   282     00A0                     	ds	32
   283                           
   284                           	psect	clrtext
   285     0258                     clear_ram0:	
   286                           ;	Called with FSR containing the base address, and
   287                           ;	W with the last address+1
   288                           
   289     0258  0064               	clrwdt	;clear the watchdog before getting into this loop
   290     0259                     clrloop0:
   291     0259  0180               	clrf	0	;clear RAM location pointed to by FSR
   292     025A  0A84               	incf	4,f	;increment pointer
   293     025B  0604               	xorwf	4,w	;XOR with final address
   294     025C  1903               	btfsc	3,2	;have we reached the end yet?
   295     025D  3400               	retlw	0	;all done for this memory range, return
   296     025E  0604               	xorwf	4,w	;XOR again to restore value
   297     025F  2A59               	goto	clrloop0	;do the next byte
   298                           
   299                           	psect	cstackBANK1
   300     00C0                     __pcstackBANK1:
   301     00C0                     main@buffer:
   302                           
   303                           ; 16 bytes @ 0x0
   304     00C0                     	ds	16
   305     00D0                     main@prev_mV:
   306                           
   307                           ; 2 bytes @ 0x10
   308     00D0                     	ds	2
   309     00D2                     main@raw:
   310                           
   311                           ; 2 bytes @ 0x12
   312     00D2                     	ds	2
   313     00D4                     main@mV:
   314                           
   315                           ; 2 bytes @ 0x14
   316     00D4                     	ds	2
   317                           
   318                           	psect	cstackCOMMON
   319     0070                     __pcstackCOMMON:
   320     0070                     ?_putch:
   321     0070                     ?_lcdCommand:	
   322                           ; 1 bytes @ 0x0
   323                           
   324     0070                     ?_lcdSendDataByte:	
   325                           ; 1 bytes @ 0x0
   326                           
   327     0070                     ?_lcd_init:	
   328                           ; 1 bytes @ 0x0
   329                           
   330     0070                     ?_adc_init:	
   331                           ; 1 bytes @ 0x0
   332                           
   333     0070                     ?_main:	
   334                           ; 1 bytes @ 0x0
   335                           
   336     0070                     ?_fputc:	
   337                           ; 1 bytes @ 0x0
   338                           
   339     0070                     ?_adc_read_an0:	
   340                           ; 2 bytes @ 0x0
   341                           
   342     0070                     ?___wmul:	
   343                           ; 2 bytes @ 0x0
   344                           
   345     0070                     ?___lwdiv:	
   346                           ; 2 bytes @ 0x0
   347                           
   348     0070                     ?___lwmod:	
   349                           ; 2 bytes @ 0x0
   350                           
   351     0070                     ?___lmul:	
   352                           ; 2 bytes @ 0x0
   353                           
   354     0070                     putch@c:	
   355                           ; 4 bytes @ 0x0
   356                           
   357     0070                     ___wmul@multiplier:	
   358                           ; 1 bytes @ 0x0
   359                           
   360     0070                     ___lwdiv@divisor:	
   361                           ; 2 bytes @ 0x0
   362                           
   363     0070                     ___lwmod@divisor:	
   364                           ; 2 bytes @ 0x0
   365                           
   366     0070                     fputc@c:	
   367                           ; 2 bytes @ 0x0
   368                           
   369     0070                     ___lmul@multiplier:	
   370                           ; 2 bytes @ 0x0
   371                           
   372     0070                     ??_putch:	
   373                           ; 4 bytes @ 0x0
   374                           
   375     0070                     ??_lcdCommand:	
   376                           ; 1 bytes @ 0x0
   377                           
   378     0070                     ??_lcdSendDataByte:	
   379                           ; 1 bytes @ 0x0
   380                           
   381     0070                     ??_adc_init:	
   382                           ; 1 bytes @ 0x0
   383                           
   384                           
   385                           ; 1 bytes @ 0x0
   386     0070                     	ds	2
   387     0072                     lcdCommand@cmd:
   388     0072                     lcdSendDataByte@data:	
   389                           ; 1 bytes @ 0x2
   390                           
   391     0072                     ___wmul@multiplicand:	
   392                           ; 1 bytes @ 0x2
   393                           
   394     0072                     ___lwdiv@dividend:	
   395                           ; 2 bytes @ 0x2
   396                           
   397     0072                     ___lwmod@dividend:	
   398                           ; 2 bytes @ 0x2
   399                           
   400     0072                     fputc@fp:	
   401                           ; 2 bytes @ 0x2
   402                           
   403     0072                     ??_adc_read_an0:	
   404                           ; 2 bytes @ 0x2
   405                           
   406                           
   407                           ; 1 bytes @ 0x2
   408     0072                     	ds	1
   409     0073                     ?_lcdSendString:
   410     0073                     lcdSendString@addr:	
   411                           ; 1 bytes @ 0x3
   412                           
   413     0073                     ??_lcd_init:	
   414                           ; 1 bytes @ 0x3
   415                           
   416                           
   417                           ; 1 bytes @ 0x3
   418     0073                     	ds	1
   419     0074                     ___lwmod@counter:
   420     0074                     ___wmul@product:	
   421                           ; 1 bytes @ 0x4
   422                           
   423     0074                     ___lwdiv@quotient:	
   424                           ; 2 bytes @ 0x4
   425                           
   426     0074                     ___lmul@multiplicand:	
   427                           ; 2 bytes @ 0x4
   428                           
   429     0074                     ??_fputc:	
   430                           ; 4 bytes @ 0x4
   431                           
   432     0074                     ??_lcdSendString:	
   433                           ; 1 bytes @ 0x4
   434                           
   435     0074                     ??___wmul:	
   436                           ; 1 bytes @ 0x4
   437                           
   438     0074                     ??___lwdiv:	
   439                           ; 1 bytes @ 0x4
   440                           
   441     0074                     ??___lwmod:	
   442                           ; 1 bytes @ 0x4
   443                           
   444                           
   445                           ; 1 bytes @ 0x4
   446     0074                     	ds	2
   447     0076                     ?_read_prec_or_width:
   448     0076                     ___lwdiv@counter:	
   449                           ; 2 bytes @ 0x6
   450                           
   451     0076                     read_prec_or_width@fmt:	
   452                           ; 1 bytes @ 0x6
   453                           
   454                           
   455                           ; 1 bytes @ 0x6
   456     0076                     	ds	1
   457     0077                     read_prec_or_width@ap:
   458                           
   459                           ; 1 bytes @ 0x7
   460     0077                     	ds	1
   461     0078                     ??___lmul:
   462     0078                     ??_read_prec_or_width:	
   463                           ; 1 bytes @ 0x8
   464                           
   465                           
   466                           ; 1 bytes @ 0x8
   467     0078                     	ds	1
   468     0079                     read_prec_or_width@c:
   469     0079                     ___lmul@product:	
   470                           ; 1 bytes @ 0x9
   471                           
   472                           
   473                           ; 4 bytes @ 0x9
   474     0079                     	ds	1
   475     007A                     read_prec_or_width@n:
   476                           
   477                           ; 2 bytes @ 0xA
   478     007A                     	ds	3
   479     007D                     ??___aldiv:
   480     007D                     ??_pad:	
   481                           ; 1 bytes @ 0xD
   482                           
   483                           
   484                           ; 1 bytes @ 0xD
   485     007D                     	ds	1
   486     007E                     ??_vfprintf:
   487     007E                     ??_utoa:	
   488                           ; 1 bytes @ 0xE
   489                           
   490                           
   491                           	psect	cstackBANK0
   492     0020                     __pcstackBANK0:	
   493                           ; 1 bytes @ 0xE
   494                           
   495     0020                     ?_fputs:
   496     0020                     ?___aldiv:	
   497                           ; 2 bytes @ 0x0
   498                           
   499     0020                     fputs@s:	
   500                           ; 4 bytes @ 0x0
   501                           
   502     0020                     ___aldiv@divisor:	
   503                           ; 1 bytes @ 0x0
   504                           
   505                           
   506                           ; 4 bytes @ 0x0
   507     0020                     	ds	1
   508     0021                     fputs@fp:
   509                           
   510                           ; 2 bytes @ 0x1
   511     0021                     	ds	2
   512     0023                     ??_fputs:
   513                           
   514                           ; 1 bytes @ 0x3
   515     0023                     	ds	1
   516     0024                     ___aldiv@dividend:
   517                           
   518                           ; 4 bytes @ 0x4
   519     0024                     	ds	1
   520     0025                     fputs@c:
   521                           
   522                           ; 1 bytes @ 0x5
   523     0025                     	ds	1
   524     0026                     fputs@i:
   525                           
   526                           ; 2 bytes @ 0x6
   527     0026                     	ds	2
   528     0028                     ?_pad:
   529     0028                     ___aldiv@counter:	
   530                           ; 1 bytes @ 0x8
   531                           
   532     0028                     pad@fp:	
   533                           ; 1 bytes @ 0x8
   534                           
   535                           
   536                           ; 2 bytes @ 0x8
   537     0028                     	ds	1
   538     0029                     ___aldiv@sign:
   539                           
   540                           ; 1 bytes @ 0x9
   541     0029                     	ds	1
   542     002A                     pad@buf:
   543     002A                     ___aldiv@quotient:	
   544                           ; 1 bytes @ 0xA
   545                           
   546                           
   547                           ; 4 bytes @ 0xA
   548     002A                     	ds	1
   549     002B                     pad@p:
   550                           
   551                           ; 2 bytes @ 0xB
   552     002B                     	ds	2
   553     002D                     pad@i:
   554                           
   555                           ; 2 bytes @ 0xD
   556     002D                     	ds	2
   557     002F                     ?_utoa:
   558     002F                     utoa@fp:	
   559                           ; 1 bytes @ 0xF
   560                           
   561                           
   562                           ; 2 bytes @ 0xF
   563     002F                     	ds	2
   564     0031                     utoa@d:
   565                           
   566                           ; 2 bytes @ 0x11
   567     0031                     	ds	2
   568     0033                     utoa@w:
   569                           
   570                           ; 2 bytes @ 0x13
   571     0033                     	ds	2
   572     0035                     utoa@p:
   573                           
   574                           ; 1 bytes @ 0x15
   575     0035                     	ds	1
   576     0036                     utoa@i:
   577                           
   578                           ; 2 bytes @ 0x16
   579     0036                     	ds	2
   580     0038                     ?_vfpfcnvrt:
   581     0038                     vfpfcnvrt@fp:	
   582                           ; 1 bytes @ 0x18
   583                           
   584                           
   585                           ; 2 bytes @ 0x18
   586     0038                     	ds	2
   587     003A                     vfpfcnvrt@fmt:
   588                           
   589                           ; 1 bytes @ 0x1A
   590     003A                     	ds	1
   591     003B                     vfpfcnvrt@ap:
   592                           
   593                           ; 1 bytes @ 0x1B
   594     003B                     	ds	1
   595     003C                     ??_vfpfcnvrt:
   596                           
   597                           ; 1 bytes @ 0x1C
   598     003C                     	ds	2
   599     003E                     vfpfcnvrt@convarg:
   600                           
   601                           ; 4 bytes @ 0x1E
   602     003E                     	ds	4
   603     0042                     vfpfcnvrt@cp:
   604                           
   605                           ; 1 bytes @ 0x22
   606     0042                     	ds	1
   607     0043                     ?_vfprintf:
   608     0043                     vfprintf@fp:	
   609                           ; 2 bytes @ 0x23
   610                           
   611                           
   612                           ; 2 bytes @ 0x23
   613     0043                     	ds	2
   614     0045                     vfprintf@fmt:
   615                           
   616                           ; 1 bytes @ 0x25
   617     0045                     	ds	1
   618     0046                     vfprintf@ap:
   619                           
   620                           ; 1 bytes @ 0x26
   621     0046                     	ds	1
   622     0047                     vfprintf@cfmt:
   623                           
   624                           ; 1 bytes @ 0x27
   625     0047                     	ds	1
   626     0048                     ?_sprintf:
   627     0048                     sprintf@s:	
   628                           ; 2 bytes @ 0x28
   629                           
   630                           
   631                           ; 1 bytes @ 0x28
   632     0048                     	ds	1
   633     0049                     sprintf@fmt:
   634                           
   635                           ; 1 bytes @ 0x29
   636     0049                     	ds	3
   637     004C                     ??_sprintf:
   638                           
   639                           ; 1 bytes @ 0x2C
   640     004C                     	ds	1
   641     004D                     sprintf@ap:
   642                           
   643                           ; 1 bytes @ 0x2D
   644     004D                     	ds	1
   645     004E                     sprintf@f:
   646                           
   647                           ; 11 bytes @ 0x2E
   648     004E                     	ds	11
   649     0059                     ??_main:
   650                           
   651                           ; 1 bytes @ 0x39
   652     0059                     	ds	3
   653                           
   654                           	psect	maintext
   655     0729                     __pmaintext:	
   656 ;;
   657 ;;Main: autosize = 0, tempsize = 3, incstack = 0, save=0
   658 ;;
   659 ;; *************** function _main *****************
   660 ;; Defined at:
   661 ;;		line 82 in file "adc.c"
   662 ;; Parameters:    Size  Location     Type
   663 ;;		None
   664 ;; Auto vars:     Size  Location     Type
   665 ;;  mV              2   20[BANK1 ] unsigned short 
   666 ;;  raw             2   18[BANK1 ] unsigned short 
   667 ;;  buffer         16    0[BANK1 ] unsigned char [16]
   668 ;;  prev_mV         2   16[BANK1 ] unsigned short 
   669 ;; Return value:  Size  Location     Type
   670 ;;                  1    wreg      void 
   671 ;; Registers used:
   672 ;;		wreg, fsr0l, fsr0h, status,2, status,0, pclath, cstack
   673 ;; Tracked objects:
   674 ;;		On entry : B00/0
   675 ;;		On exit  : 0/0
   676 ;;		Unchanged: 0/0
   677 ;; Data sizes:     COMMON   BANK0   BANK1   BANK3   BANK2
   678 ;;      Params:         0       0       0       0       0
   679 ;;      Locals:         0       0      22       0       0
   680 ;;      Temps:          0       3       0       0       0
   681 ;;      Totals:         0       3      22       0       0
   682 ;;Total ram usage:       25 bytes
   683 ;; Hardware stack levels required when called: 7
   684 ;; This function calls:
   685 ;;		___aldiv
   686 ;;		___lmul
   687 ;;		_adc_init
   688 ;;		_adc_read_an0
   689 ;;		_lcdCommand
   690 ;;		_lcdSendString
   691 ;;		_lcd_init
   692 ;;		_sprintf
   693 ;; This function is called by:
   694 ;;		Startup code after reset
   695 ;; This function uses a non-reentrant model
   696 ;;
   697                           
   698     0729                     _main:	
   699                           ;psect for function _main
   700                           
   701     0729                     l1331:	
   702                           ;incstack = 0
   703                           ; Regs used in _main: [wreg-fsr0h+status,2+status,0+pclath+cstack]
   704                           
   705                           
   706                           ;adc.c: 83:     TRISD = 0x00;
   707     0729  1683               	bsf	3,5	;RP0=1, select bank1
   708     072A  1303               	bcf	3,6	;RP1=0, select bank1
   709     072B  0188               	clrf	8	;volatile
   710                           
   711                           ;adc.c: 84:     TRISB = 0x00;
   712     072C  0186               	clrf	6	;volatile
   713     072D                     l1333:
   714                           
   715                           ;adc.c: 86:     lcd_init();
   716     072D  120A  118A  2361  120A  118A  	fcall	_lcd_init
   717     0732                     l1335:
   718                           
   719                           ;adc.c: 87:     adc_init();
   720     0732  120A  118A  2260  120A  118A  	fcall	_adc_init
   721     0737                     l1337:
   722                           
   723                           ;adc.c: 88:     char buffer[16];;adc.c: 89:     uint16_t prev_mV = 0xff;
   724     0737  30FF               	movlw	255
   725     0738  1683               	bsf	3,5	;RP0=1, select bank1
   726     0739  1303               	bcf	3,6	;RP1=0, select bank1
   727     073A  00D0               	movwf	main@prev_mV^(0+128)
   728     073B  3000               	movlw	0
   729     073C  00D1               	movwf	(main@prev_mV^(0+128)+1)
   730     073D                     l1339:
   731                           
   732                           ;adc.c: 92:         uint16_t raw = adc_read_an0();
   733     073D  120A  118A  226F  120A  118A  	fcall	_adc_read_an0
   734     0742  0871               	movf	?_adc_read_an0+1,w
   735     0743  1683               	bsf	3,5	;RP0=1, select bank1
   736     0744  1303               	bcf	3,6	;RP1=0, select bank1
   737     0745  00D3               	movwf	(main@raw+1)^(0+128)
   738     0746  0870               	movf	?_adc_read_an0,w
   739     0747  00D2               	movwf	main@raw^(0+128)
   740     0748                     l1341:
   741                           
   742                           ;adc.c: 93:         uint16_t mV = (uint16_t)raw*5000L/1023U;
   743     0748  3000               	movlw	0
   744     0749  1283               	bcf	3,5	;RP0=0, select bank0
   745     074A  1303               	bcf	3,6	;RP1=0, select bank0
   746     074B  00A3               	movwf	___aldiv@divisor+3
   747     074C  3000               	movlw	0
   748     074D  00A2               	movwf	___aldiv@divisor+2
   749     074E  3003               	movlw	3
   750     074F  00A1               	movwf	___aldiv@divisor+1
   751     0750  30FF               	movlw	255
   752     0751  00A0               	movwf	___aldiv@divisor
   753     0752  1683               	bsf	3,5	;RP0=1, select bank1
   754     0753  1303               	bcf	3,6	;RP1=0, select bank1
   755     0754  0852               	movf	main@raw^(0+128),w
   756     0755  00F0               	movwf	___lmul@multiplier
   757     0756  0853               	movf	(main@raw+1)^(0+128),w
   758     0757  00F1               	movwf	___lmul@multiplier+1
   759     0758  01F2               	clrf	___lmul@multiplier+2
   760     0759  01F3               	clrf	___lmul@multiplier+3
   761     075A  3000               	movlw	0
   762     075B  00F7               	movwf	___lmul@multiplicand+3
   763     075C  3000               	movlw	0
   764     075D  00F6               	movwf	___lmul@multiplicand+2
   765     075E  3013               	movlw	19
   766     075F  00F5               	movwf	___lmul@multiplicand+1
   767     0760  3088               	movlw	136
   768     0761  00F4               	movwf	___lmul@multiplicand
   769     0762  120A  118A  240C  120A  118A  	fcall	___lmul
   770     0767  0873               	movf	?___lmul+3,w
   771     0768  1283               	bcf	3,5	;RP0=0, select bank0
   772     0769  1303               	bcf	3,6	;RP1=0, select bank0
   773     076A  00A7               	movwf	___aldiv@dividend+3
   774     076B  0872               	movf	?___lmul+2,w
   775     076C  00A6               	movwf	___aldiv@dividend+2
   776     076D  0871               	movf	?___lmul+1,w
   777     076E  00A5               	movwf	___aldiv@dividend+1
   778     076F  0870               	movf	?___lmul,w
   779     0770  00A4               	movwf	___aldiv@dividend
   780     0771  120A  118A  25F6  120A  118A  	fcall	___aldiv
   781     0776  1283               	bcf	3,5	;RP0=0, select bank0
   782     0777  1303               	bcf	3,6	;RP1=0, select bank0
   783     0778  0821               	movf	?___aldiv+1,w
   784     0779  1683               	bsf	3,5	;RP0=1, select bank1
   785     077A  1303               	bcf	3,6	;RP1=0, select bank1
   786     077B  00D5               	movwf	(main@mV+1)^(0+128)
   787     077C  1283               	bcf	3,5	;RP0=0, select bank0
   788     077D  1303               	bcf	3,6	;RP1=0, select bank0
   789     077E  0820               	movf	?___aldiv,w
   790     077F  1683               	bsf	3,5	;RP0=1, select bank1
   791     0780  1303               	bcf	3,6	;RP1=0, select bank1
   792     0781  00D4               	movwf	main@mV^(0+128)
   793     0782                     l1343:
   794                           
   795                           ;adc.c: 95:         if(mV != prev_mV){
   796     0782  0851               	movf	(main@prev_mV+1)^(0+128),w
   797     0783  0655               	xorwf	(main@mV+1)^(0+128),w
   798     0784  1D03               	skipz
   799     0785  2F88               	goto	u1085
   800     0786  0850               	movf	main@prev_mV^(0+128),w
   801     0787  0654               	xorwf	main@mV^(0+128),w
   802     0788                     u1085:
   803     0788  1903               	skipnz
   804     0789  2F8B               	goto	u1081
   805     078A  2F8C               	goto	u1080
   806     078B                     u1081:
   807     078B  2FDA               	goto	l1357
   808     078C                     u1080:
   809     078C                     l1345:
   810                           
   811                           ;adc.c: 96:             lcdCommand(0x80);
   812     078C  3080               	movlw	128
   813     078D  120A  118A  22B0  120A  118A  	fcall	_lcdCommand
   814     0792                     l1347:
   815                           
   816                           ;adc.c: 97:             sprintf(buffer, "RAW:%4u", raw);
   817     0792  30C0               	movlw	(low (main@buffer| 0))& (0+255)
   818     0793  1283               	bcf	3,5	;RP0=0, select bank0
   819     0794  1303               	bcf	3,6	;RP1=0, select bank0
   820     0795  00C8               	movwf	sprintf@s
   821     0796  3001               	movlw	(low ((STR_1-__stringbase)| (0+32768)))& (0+255)
   822     0797  00C9               	movwf	sprintf@fmt
   823     0798  1683               	bsf	3,5	;RP0=1, select bank1
   824     0799  1303               	bcf	3,6	;RP1=0, select bank1
   825     079A  0853               	movf	(main@raw+1)^(0+128),w
   826     079B  1283               	bcf	3,5	;RP0=0, select bank0
   827     079C  1303               	bcf	3,6	;RP1=0, select bank0
   828     079D  00CB               	movwf	?_sprintf+3
   829     079E  1683               	bsf	3,5	;RP0=1, select bank1
   830     079F  1303               	bcf	3,6	;RP1=0, select bank1
   831     07A0  0852               	movf	main@raw^(0+128),w
   832     07A1  1283               	bcf	3,5	;RP0=0, select bank0
   833     07A2  1303               	bcf	3,6	;RP1=0, select bank0
   834     07A3  00CA               	movwf	?_sprintf+2
   835     07A4  120A  118A  22EE  120A  118A  	fcall	_sprintf
   836     07A9                     l1349:
   837                           
   838                           ;adc.c: 98:             lcdSendString(buffer);
   839     07A9  30C0               	movlw	(low (main@buffer| 0))& (0+255)
   840     07AA  00F3               	movwf	lcdSendString@addr
   841     07AB  120A  118A  2281  120A  118A  	fcall	_lcdSendString
   842                           
   843                           ;adc.c: 100:             lcdCommand(0xC0);
   844     07B0  30C0               	movlw	192
   845     07B1  120A  118A  22B0  120A  118A  	fcall	_lcdCommand
   846     07B6                     l1351:
   847                           
   848                           ;adc.c: 101:             sprintf(buffer, "mV:%4u", mV);
   849     07B6  30C0               	movlw	(low (main@buffer| 0))& (0+255)
   850     07B7  1283               	bcf	3,5	;RP0=0, select bank0
   851     07B8  1303               	bcf	3,6	;RP1=0, select bank0
   852     07B9  00C8               	movwf	sprintf@s
   853     07BA  3009               	movlw	(low ((STR_2-__stringbase)| (0+32768)))& (0+255)
   854     07BB  00C9               	movwf	sprintf@fmt
   855     07BC  1683               	bsf	3,5	;RP0=1, select bank1
   856     07BD  1303               	bcf	3,6	;RP1=0, select bank1
   857     07BE  0855               	movf	(main@mV+1)^(0+128),w
   858     07BF  1283               	bcf	3,5	;RP0=0, select bank0
   859     07C0  1303               	bcf	3,6	;RP1=0, select bank0
   860     07C1  00CB               	movwf	?_sprintf+3
   861     07C2  1683               	bsf	3,5	;RP0=1, select bank1
   862     07C3  1303               	bcf	3,6	;RP1=0, select bank1
   863     07C4  0854               	movf	main@mV^(0+128),w
   864     07C5  1283               	bcf	3,5	;RP0=0, select bank0
   865     07C6  1303               	bcf	3,6	;RP1=0, select bank0
   866     07C7  00CA               	movwf	?_sprintf+2
   867     07C8  120A  118A  22EE  120A  118A  	fcall	_sprintf
   868     07CD                     l1353:
   869                           
   870                           ;adc.c: 102:             lcdSendString(buffer);
   871     07CD  30C0               	movlw	(low (main@buffer| 0))& (0+255)
   872     07CE  00F3               	movwf	lcdSendString@addr
   873     07CF  120A  118A  2281  120A  118A  	fcall	_lcdSendString
   874     07D4                     l1355:
   875                           
   876                           ;adc.c: 104:             prev_mV = mV;
   877     07D4  1683               	bsf	3,5	;RP0=1, select bank1
   878     07D5  1303               	bcf	3,6	;RP1=0, select bank1
   879     07D6  0855               	movf	(main@mV+1)^(0+128),w
   880     07D7  00D1               	movwf	(main@prev_mV+1)^(0+128)
   881     07D8  0854               	movf	main@mV^(0+128),w
   882     07D9  00D0               	movwf	main@prev_mV^(0+128)
   883     07DA                     l1357:
   884                           
   885                           ;adc.c: 106:         _delay((unsigned long)((100)*(20000000/4000.0)));
   886     07DA  3003               	movlw	3
   887     07DB  1283               	bcf	3,5	;RP0=0, select bank0
   888     07DC  1303               	bcf	3,6	;RP1=0, select bank0
   889     07DD  00DB               	movwf	??_main+2
   890     07DE  308A               	movlw	138
   891     07DF  00DA               	movwf	??_main+1
   892     07E0  3055               	movlw	85
   893     07E1  00D9               	movwf	??_main
   894     07E2                     u1097:
   895     07E2  0BD9               	decfsz	??_main,f
   896     07E3  2FE2               	goto	u1097
   897     07E4  0BDA               	decfsz	??_main+1,f
   898     07E5  2FE2               	goto	u1097
   899     07E6  0BDB               	decfsz	??_main+2,f
   900     07E7  2FE2               	goto	u1097
   901     07E8  2F3D               	goto	l1339
   902     07E9  120A  118A  2800   	ljmp	start
   903     07EC                     __end_of_main:
   904                           
   905                           	psect	text1
   906     02EE                     __ptext1:	
   907 ;; *************** function _sprintf *****************
   908 ;; Defined at:
   909 ;;		line 9 in file "C:\Program Files\Microchip\xc8\v3.10\pic\sources\c99\common\nf_sprintf.c"
   910 ;; Parameters:    Size  Location     Type
   911 ;;  s               1   40[BANK0 ] PTR unsigned char 
   912 ;;		 -> main@buffer(16), 
   913 ;;  fmt             1   41[BANK0 ] PTR const unsigned char 
   914 ;;		 -> STR_2(7), STR_1(8), 
   915 ;; Auto vars:     Size  Location     Type
   916 ;;  f              11   46[BANK0 ] struct _IO_FILE
   917 ;;  ret             2    0        int 
   918 ;;  ap              1   45[BANK0 ] PTR void [1]
   919 ;;		 -> ?_sprintf(2), 
   920 ;; Return value:  Size  Location     Type
   921 ;;                  2   40[BANK0 ] int 
   922 ;; Registers used:
   923 ;;		wreg, fsr0l, fsr0h, status,2, status,0, pclath, cstack
   924 ;; Tracked objects:
   925 ;;		On entry : 0/0
   926 ;;		On exit  : 0/0
   927 ;;		Unchanged: 0/0
   928 ;; Data sizes:     COMMON   BANK0   BANK1   BANK3   BANK2
   929 ;;      Params:         0       4       0       0       0
   930 ;;      Locals:         0      12       0       0       0
   931 ;;      Temps:          0       1       0       0       0
   932 ;;      Totals:         0      17       0       0       0
   933 ;;Total ram usage:       17 bytes
   934 ;; Hardware stack levels used: 1
   935 ;; Hardware stack levels required when called: 6
   936 ;; This function calls:
   937 ;;		_vfprintf
   938 ;; This function is called by:
   939 ;;		_main
   940 ;; This function uses a non-reentrant model
   941 ;;
   942                           
   943     02EE                     _sprintf:	
   944                           ;psect for function _sprintf
   945                           
   946     02EE                     l1263:	
   947                           ;incstack = 0
   948                           ; Regs used in _sprintf: [wreg-fsr0h+status,2+status,0+pclath+cstack]
   949                           
   950     02EE  304A               	movlw	(low ((?_sprintf| 0+2)))& (0+255)
   951     02EF  1283               	bcf	3,5	;RP0=0, select bank0
   952     02F0  1303               	bcf	3,6	;RP1=0, select bank0
   953     02F1  00CD               	movwf	sprintf@ap
   954     02F2                     l1265:
   955     02F2  0848               	movf	sprintf@s,w
   956     02F3  00CE               	movwf	sprintf@f
   957     02F4  3000               	movlw	0
   958     02F5  00CF               	movwf	sprintf@f+1
   959     02F6                     l1267:
   960     02F6  01D0               	clrf	sprintf@f+2
   961     02F7  01D1               	clrf	sprintf@f+3
   962     02F8                     l1269:
   963     02F8  01D7               	clrf	sprintf@f+9
   964     02F9  01D8               	clrf	sprintf@f+10
   965     02FA                     l1271:
   966     02FA  304E               	movlw	low sprintf@f
   967     02FB  00C3               	movwf	vfprintf@fp
   968     02FC  3000               	movlw	high sprintf@f
   969     02FD  00C4               	movwf	vfprintf@fp+1
   970     02FE  0849               	movf	sprintf@fmt,w
   971     02FF  00C5               	movwf	vfprintf@fmt
   972     0300  304D               	movlw	(low (sprintf@ap| 0))& (0+255)
   973     0301  00C6               	movwf	vfprintf@ap
   974     0302  120A  118A  22CB  120A  118A  	fcall	_vfprintf
   975     0307                     l1273:
   976     0307  1283               	bcf	3,5	;RP0=0, select bank0
   977     0308  1303               	bcf	3,6	;RP1=0, select bank0
   978     0309  0850               	movf	sprintf@f+2,w
   979     030A  0748               	addwf	sprintf@s,w
   980     030B  00CC               	movwf	??_sprintf
   981     030C  084C               	movf	??_sprintf,w
   982     030D  0084               	movwf	4
   983     030E  1383               	bcf	3,7	;select IRP bank0
   984     030F  0180               	clrf	0
   985     0310                     l606:
   986     0310  0008               	return
   987     0311                     __end_of_sprintf:
   988                           
   989                           	psect	text2
   990     02CB                     __ptext2:	
   991 ;; *************** function _vfprintf *****************
   992 ;; Defined at:
   993 ;;		line 1817 in file "C:\Program Files\Microchip\xc8\v3.10\pic\sources\c99\common\doprnt.c"
   994 ;; Parameters:    Size  Location     Type
   995 ;;  fp              2   35[BANK0 ] PTR struct _IO_FILE
   996 ;;		 -> sprintf@f(11), 
   997 ;;  fmt             1   37[BANK0 ] PTR const unsigned char 
   998 ;;		 -> STR_2(7), STR_1(8), 
   999 ;;  ap              1   38[BANK0 ] PTR PTR void 
  1000 ;;		 -> sprintf@ap(1), 
  1001 ;; Auto vars:     Size  Location     Type
  1002 ;;  cfmt            1   39[BANK0 ] PTR unsigned char 
  1003 ;;		 -> STR_2(7), STR_1(8), 
  1004 ;; Return value:  Size  Location     Type
  1005 ;;                  2   35[BANK0 ] int 
  1006 ;; Registers used:
  1007 ;;		wreg, fsr0l, fsr0h, status,2, status,0, pclath, cstack
  1008 ;; Tracked objects:
  1009 ;;		On entry : 0/0
  1010 ;;		On exit  : 0/0
  1011 ;;		Unchanged: 0/0
  1012 ;; Data sizes:     COMMON   BANK0   BANK1   BANK3   BANK2
  1013 ;;      Params:         0       4       0       0       0
  1014 ;;      Locals:         0       1       0       0       0
  1015 ;;      Temps:          0       0       0       0       0
  1016 ;;      Totals:         0       5       0       0       0
  1017 ;;Total ram usage:        5 bytes
  1018 ;; Hardware stack levels used: 1
  1019 ;; Hardware stack levels required when called: 5
  1020 ;; This function calls:
  1021 ;;		_vfpfcnvrt
  1022 ;; This function is called by:
  1023 ;;		_sprintf
  1024 ;; This function uses a non-reentrant model
  1025 ;;
  1026                           
  1027     02CB                     _vfprintf:	
  1028                           ;psect for function _vfprintf
  1029                           
  1030     02CB                     l1221:	
  1031                           ;incstack = 0
  1032                           ; Regs used in _vfprintf: [wreg-fsr0h+status,2+status,0+pclath+cstack]
  1033                           
  1034                           
  1035                           ;C:\Program Files\Microchip\xc8\v3.10\pic\sources\c99\common\doprnt.c: 1817: int vfprint
      +                          f(FILE *fp, const char *fmt, va_list ap);C:\Program Files\Microchip\xc8\v3.10\pic\source
      +                          s\c99\common\doprnt.c: 1818: {;C:\Program Files\Microchip\xc8\v3.10\pic\sources\c99\comm
      +                          on\doprnt.c: 1820:     char *cfmt;;C:\Program Files\Microchip\xc8\v3.10\pic\sources\c99\
      +                          common\doprnt.c: 1822:     cfmt = (char *)fmt;
  1036     02CB  1283               	bcf	3,5	;RP0=0, select bank0
  1037     02CC  1303               	bcf	3,6	;RP1=0, select bank0
  1038     02CD  0845               	movf	vfprintf@fmt,w
  1039     02CE  00C7               	movwf	vfprintf@cfmt
  1040                           
  1041                           ;C:\Program Files\Microchip\xc8\v3.10\pic\sources\c99\common\doprnt.c: 1826:     while (
      +                          *cfmt) {
  1042     02CF  2ADD               	goto	l1225
  1043     02D0                     l1223:
  1044                           
  1045                           ;C:\Program Files\Microchip\xc8\v3.10\pic\sources\c99\common\doprnt.c: 1830:    vfpfcnvr
      +                          t(fp, &cfmt, ap);
  1046     02D0  0843               	movf	vfprintf@fp,w
  1047     02D1  00B8               	movwf	vfpfcnvrt@fp
  1048     02D2  0844               	movf	vfprintf@fp+1,w
  1049     02D3  00B9               	movwf	vfpfcnvrt@fp+1
  1050     02D4  3047               	movlw	(low (vfprintf@cfmt| 0))& (0+255)
  1051     02D5  00BA               	movwf	vfpfcnvrt@fmt
  1052     02D6  0846               	movf	vfprintf@ap,w
  1053     02D7  00BB               	movwf	vfpfcnvrt@ap
  1054     02D8  120A  118A  2561  120A  118A  	fcall	_vfpfcnvrt
  1055     02DD                     l1225:
  1056                           
  1057                           ;C:\Program Files\Microchip\xc8\v3.10\pic\sources\c99\common\doprnt.c: 1826:     while (
      +                          *cfmt) {
  1058     02DD  1283               	bcf	3,5	;RP0=0, select bank0
  1059     02DE  1303               	bcf	3,6	;RP1=0, select bank0
  1060     02DF  0847               	movf	vfprintf@cfmt,w
  1061     02E0  0084               	movwf	4
  1062     02E1  120A  118A  2003  120A  118A  	fcall	stringdir
  1063     02E6  3A00               	xorlw	0
  1064     02E7  1D03               	skipz
  1065     02E8  2AEA               	goto	u901
  1066     02E9  2AEB               	goto	u900
  1067     02EA                     u901:
  1068     02EA  2AD0               	goto	l1223
  1069     02EB                     u900:
  1070     02EB                     l1227:
  1071                           
  1072                           ;C:\Program Files\Microchip\xc8\v3.10\pic\sources\c99\common\doprnt.c: 1835:  return 0;
  1073     02EB  01C3               	clrf	?_vfprintf
  1074     02EC  01C4               	clrf	?_vfprintf+1
  1075     02ED                     l662:
  1076     02ED  0008               	return
  1077     02EE                     __end_of_vfprintf:
  1078                           
  1079                           	psect	text3
  1080     0561                     __ptext3:	
  1081 ;; *************** function _vfpfcnvrt *****************
  1082 ;; Defined at:
  1083 ;;		line 1177 in file "C:\Program Files\Microchip\xc8\v3.10\pic\sources\c99\common\doprnt.c"
  1084 ;; Parameters:    Size  Location     Type
  1085 ;;  fp              2   24[BANK0 ] PTR struct _IO_FILE
  1086 ;;		 -> sprintf@f(11), 
  1087 ;;  fmt             1   26[BANK0 ] PTR PTR unsigned char 
  1088 ;;		 -> vfprintf@cfmt(1), 
  1089 ;;  ap              1   27[BANK0 ] PTR PTR void 
  1090 ;;		 -> sprintf@ap(1), 
  1091 ;; Auto vars:     Size  Location     Type
  1092 ;;  convarg         4   30[BANK0 ] struct .
  1093 ;;  cp              1   34[BANK0 ] PTR unsigned char 
  1094 ;;		 -> STR_2(7), STR_1(8), 
  1095 ;;  done            1    0        _Bool 
  1096 ;;  c               1    0        unsigned char 
  1097 ;; Return value:  Size  Location     Type
  1098 ;;                  1    wreg      void 
  1099 ;; Registers used:
  1100 ;;		wreg, fsr0l, fsr0h, status,2, status,0, pclath, cstack
  1101 ;; Tracked objects:
  1102 ;;		On entry : 0/0
  1103 ;;		On exit  : 0/0
  1104 ;;		Unchanged: 0/0
  1105 ;; Data sizes:     COMMON   BANK0   BANK1   BANK3   BANK2
  1106 ;;      Params:         0       4       0       0       0
  1107 ;;      Locals:         0       5       0       0       0
  1108 ;;      Temps:          0       2       0       0       0
  1109 ;;      Totals:         0      11       0       0       0
  1110 ;;Total ram usage:       11 bytes
  1111 ;; Hardware stack levels used: 1
  1112 ;; Hardware stack levels required when called: 4
  1113 ;; This function calls:
  1114 ;;		_fputc
  1115 ;;		_read_prec_or_width
  1116 ;;		_utoa
  1117 ;; This function is called by:
  1118 ;;		_vfprintf
  1119 ;; This function uses a non-reentrant model
  1120 ;;
  1121                           
  1122     0561                     _vfpfcnvrt:	
  1123                           ;psect for function _vfpfcnvrt
  1124                           
  1125     0561                     l1165:	
  1126                           ;incstack = 0
  1127                           ; Regs used in _vfpfcnvrt: [wreg-fsr0h+status,2+status,0+pclath+cstack]
  1128                           
  1129                           
  1130                           ;C:\Program Files\Microchip\xc8\v3.10\pic\sources\c99\common\doprnt.c: 1177: vfpfcnvrt(F
      +                          ILE *fp, char *fmt[], va_list ap);C:\Program Files\Microchip\xc8\v3.10\pic\sources\c99\c
      +                          ommon\doprnt.c: 1178: {;C:\Program Files\Microchip\xc8\v3.10\pic\sources\c99\common\dopr
      +                          nt.c: 1179:     char c, *cp;;C:\Program Files\Microchip\xc8\v3.10\pic\sources\c99\common
      +                          \doprnt.c: 1180:     _Bool done;;C:\Program Files\Microchip\xc8\v3.10\pic\sources\c99\co
      +                          mmon\doprnt.c: 1188:  } convarg;;C:\Program Files\Microchip\xc8\v3.10\pic\sources\c99\co
      +                          mmon\doprnt.c: 1201:     if ((*fmt)[0] == '%') {
  1131     0561  1283               	bcf	3,5	;RP0=0, select bank0
  1132     0562  1303               	bcf	3,6	;RP1=0, select bank0
  1133     0563  083A               	movf	vfpfcnvrt@fmt,w
  1134     0564  0084               	movwf	4
  1135     0565  1383               	bcf	3,7	;select IRP bank0
  1136     0566  0800               	movf	0,w
  1137     0567  0084               	movwf	4
  1138     0568  120A  118A  2003  120A  118A  	fcall	stringdir
  1139     056D  3A25               	xorlw	37
  1140     056E  1D03               	skipz
  1141     056F  2D71               	goto	u871
  1142     0570  2D72               	goto	u870
  1143     0571                     u871:
  1144     0571  2DDC               	goto	l1199
  1145     0572                     u870:
  1146     0572                     l1167:
  1147                           
  1148                           ;C:\Program Files\Microchip\xc8\v3.10\pic\sources\c99\common\doprnt.c: 1202:         ++*
      +                          fmt;
  1149     0572  083A               	movf	vfpfcnvrt@fmt,w
  1150     0573  0084               	movwf	4
  1151     0574  3001               	movlw	1
  1152     0575  0780               	addwf	0,f
  1153     0576                     l1169:
  1154                           
  1155                           ;C:\Program Files\Microchip\xc8\v3.10\pic\sources\c99\common\doprnt.c: 1204:         fla
      +                          gs = width = 0;
  1156     0576  01DC               	clrf	_width
  1157     0577  01DD               	clrf	_width+1
  1158     0578  3000               	movlw	0
  1159     0579  00E0               	movwf	_flags
  1160     057A                     l1171:
  1161                           
  1162                           ;C:\Program Files\Microchip\xc8\v3.10\pic\sources\c99\common\doprnt.c: 1205:         pre
      +                          c = -1;
  1163     057A  30FF               	movlw	255
  1164     057B  00DE               	movwf	_prec
  1165     057C  30FF               	movlw	255
  1166     057D  00DF               	movwf	_prec+1
  1167     057E                     l1173:
  1168                           
  1169                           ;C:\Program Files\Microchip\xc8\v3.10\pic\sources\c99\common\doprnt.c: 1256:   width = r
      +                          ead_prec_or_width(fmt, ap);
  1170     057E  083A               	movf	vfpfcnvrt@fmt,w
  1171     057F  00F6               	movwf	read_prec_or_width@fmt
  1172     0580  083B               	movf	vfpfcnvrt@ap,w
  1173     0581  00F7               	movwf	read_prec_or_width@ap
  1174     0582  120A  118A  2452  120A  118A  	fcall	_read_prec_or_width
  1175     0587  0877               	movf	?_read_prec_or_width+1,w
  1176     0588  1283               	bcf	3,5	;RP0=0, select bank0
  1177     0589  1303               	bcf	3,6	;RP1=0, select bank0
  1178     058A  00DD               	movwf	_width+1
  1179     058B  0876               	movf	?_read_prec_or_width,w
  1180     058C  00DC               	movwf	_width
  1181     058D                     l1175:
  1182                           
  1183                           ;C:\Program Files\Microchip\xc8\v3.10\pic\sources\c99\common\doprnt.c: 1257:   if (width
      +                           < 0) {
  1184     058D  1FDD               	btfss	_width+1,7
  1185     058E  2D90               	goto	u881
  1186     058F  2D91               	goto	u880
  1187     0590                     u881:
  1188     0590  2D97               	goto	l1181
  1189     0591                     u880:
  1190     0591                     l1177:
  1191                           
  1192                           ;C:\Program Files\Microchip\xc8\v3.10\pic\sources\c99\common\doprnt.c: 1258:    flags |=
      +                           (1 << 0);
  1193     0591  1460               	bsf	_flags,0
  1194     0592                     l1179:
  1195                           
  1196                           ;C:\Program Files\Microchip\xc8\v3.10\pic\sources\c99\common\doprnt.c: 1259:    width = 
      +                          -width;
  1197     0592  09DC               	comf	_width,f
  1198     0593  09DD               	comf	_width+1,f
  1199     0594  0ADC               	incf	_width,f
  1200     0595  1903               	skipnz
  1201     0596  0ADD               	incf	_width+1,f
  1202     0597                     l1181:
  1203                           
  1204                           ;C:\Program Files\Microchip\xc8\v3.10\pic\sources\c99\common\doprnt.c: 1439:   if (0
  1205     0597  083A               	movf	vfpfcnvrt@fmt,w
  1206     0598  0084               	movwf	4
  1207     0599  1383               	bcf	3,7	;select IRP bank0
  1208     059A  0800               	movf	0,w
  1209     059B  00C2               	movwf	vfpfcnvrt@cp
  1210     059C                     l1183:
  1211     059C  0842               	movf	vfpfcnvrt@cp,w
  1212     059D  0084               	movwf	4
  1213     059E  120A  118A  2003  120A  118A  	fcall	stringdir
  1214     05A3  3A75               	xorlw	117
  1215     05A4  1D03               	skipz
  1216     05A5  2DA7               	goto	u891
  1217     05A6  2DA8               	goto	u890
  1218     05A7                     u891:
  1219     05A7  2DD4               	goto	l1195
  1220     05A8                     u890:
  1221     05A8                     l1185:
  1222                           
  1223                           ;C:\Program Files\Microchip\xc8\v3.10\pic\sources\c99\common\doprnt.c: 1452:     ) {;C:\
      +                          Program Files\Microchip\xc8\v3.10\pic\sources\c99\common\doprnt.c: 1495:    convarg.uint
      +                           = (vfpf_uint_t)(unsigned int)(*(unsigned int *)__va_arg(*(unsigned int **)ap, (unsigned
      +                           int)0));
  1224     05A8  083B               	movf	vfpfcnvrt@ap,w
  1225     05A9  0084               	movwf	4
  1226     05AA  0800               	movf	0,w
  1227     05AB  00BC               	movwf	??_vfpfcnvrt
  1228     05AC  3002               	movlw	2
  1229     05AD  0780               	addwf	0,f
  1230     05AE  083C               	movf	??_vfpfcnvrt,w
  1231     05AF  0084               	movwf	4
  1232     05B0  0800               	movf	0,w
  1233     05B1  00BE               	movwf	vfpfcnvrt@convarg
  1234     05B2  0A84               	incf	4,f
  1235     05B3  0800               	movf	0,w
  1236     05B4  00BF               	movwf	vfpfcnvrt@convarg+1
  1237                           
  1238                           ;C:\Program Files\Microchip\xc8\v3.10\pic\sources\c99\common\doprnt.c: 1497:    *fmt = c
      +                          p+1;
  1239     05B5  083A               	movf	vfpfcnvrt@fmt,w
  1240     05B6  0084               	movwf	4
  1241     05B7  0842               	movf	vfpfcnvrt@cp,w
  1242     05B8  3E01               	addlw	1
  1243     05B9  0080               	movwf	0
  1244                           
  1245                           ;C:\Program Files\Microchip\xc8\v3.10\pic\sources\c99\common\doprnt.c: 1498:    switch (
      +                          *cp) {
  1246     05BA  2DC9               	goto	l1193
  1247     05BB                     l1187:
  1248                           
  1249                           ;C:\Program Files\Microchip\xc8\v3.10\pic\sources\c99\common\doprnt.c: 1542:      return
      +                           (void) utoa(fp, convarg.uint);;	Return value of _vfpfcnvrt is never used
  1250     05BB  0838               	movf	vfpfcnvrt@fp,w
  1251     05BC  00AF               	movwf	utoa@fp
  1252     05BD  0839               	movf	vfpfcnvrt@fp+1,w
  1253     05BE  00B0               	movwf	utoa@fp+1
  1254     05BF  083F               	movf	vfpfcnvrt@convarg+1,w
  1255     05C0  00B2               	movwf	utoa@d+1
  1256     05C1  083E               	movf	vfpfcnvrt@convarg,w
  1257     05C2  00B1               	movwf	utoa@d
  1258     05C3  120A  118A  24F8  120A  118A  	fcall	_utoa
  1259     05C8  2DF5               	goto	l655
  1260     05C9                     l1193:
  1261     05C9  0842               	movf	vfpfcnvrt@cp,w
  1262     05CA  0084               	movwf	4
  1263     05CB  120A  118A  2003  120A  118A  	fcall	stringdir
  1264                           
  1265                           ; Switch size 1, requested type "simple"
  1266                           ; Number of cases is 1, Range of values is 117 to 117
  1267                           ; switch strategies available:
  1268                           ; Name         Instructions Cycles
  1269                           ; simple_byte            4     3 (average)
  1270                           ; direct_byte           14    11 (fixed)
  1271                           ; jumptable            263     9 (fixed)
  1272                           ;	Chosen strategy is simple_byte
  1273     05D0  3A75               	xorlw	117	; case 117
  1274     05D1  1903               	skipnz
  1275     05D2  2DBB               	goto	l1187
  1276     05D3  2DD4               	goto	l1195
  1277     05D4                     l1195:
  1278                           
  1279                           ;C:\Program Files\Microchip\xc8\v3.10\pic\sources\c99\common\doprnt.c: 1806:         ++*
      +                          fmt;
  1280     05D4  1283               	bcf	3,5	;RP0=0, select bank0
  1281     05D5  1303               	bcf	3,6	;RP1=0, select bank0
  1282     05D6  083A               	movf	vfpfcnvrt@fmt,w
  1283     05D7  0084               	movwf	4
  1284     05D8  3001               	movlw	1
  1285     05D9  1383               	bcf	3,7	;select IRP bank0
  1286     05DA  0780               	addwf	0,f
  1287     05DB  2DF5               	goto	l655
  1288     05DC                     l1199:
  1289                           
  1290                           ;C:\Program Files\Microchip\xc8\v3.10\pic\sources\c99\common\doprnt.c: 1811:     fputc((
      +                          int)(*fmt)[0], fp);
  1291     05DC  083A               	movf	vfpfcnvrt@fmt,w
  1292     05DD  0084               	movwf	4
  1293     05DE  0800               	movf	0,w
  1294     05DF  0084               	movwf	4
  1295     05E0  120A  118A  2003  120A  118A  	fcall	stringdir
  1296     05E5  00BC               	movwf	??_vfpfcnvrt
  1297     05E6  01BD               	clrf	??_vfpfcnvrt+1
  1298     05E7  083C               	movf	??_vfpfcnvrt,w
  1299     05E8  00F0               	movwf	fputc@c
  1300     05E9  083D               	movf	??_vfpfcnvrt+1,w
  1301     05EA  00F1               	movwf	fputc@c+1
  1302     05EB  0838               	movf	vfpfcnvrt@fp,w
  1303     05EC  00F2               	movwf	fputc@fp
  1304     05ED  0839               	movf	vfpfcnvrt@fp+1,w
  1305     05EE  00F3               	movwf	fputc@fp+1
  1306     05EF  120A  118A  268F  120A  118A  	fcall	_fputc
  1307     05F4  2DD4               	goto	l1195
  1308     05F5                     l655:
  1309     05F5  0008               	return
  1310     05F6                     __end_of_vfpfcnvrt:
  1311                           
  1312                           	psect	text4
  1313     04F8                     __ptext4:	
  1314 ;; *************** function _utoa *****************
  1315 ;; Defined at:
  1316 ;;		line 1001 in file "C:\Program Files\Microchip\xc8\v3.10\pic\sources\c99\common\doprnt.c"
  1317 ;; Parameters:    Size  Location     Type
  1318 ;;  fp              2   15[BANK0 ] PTR struct _IO_FILE
  1319 ;;		 -> sprintf@f(11), 
  1320 ;;  d               2   17[BANK0 ] unsigned int 
  1321 ;; Auto vars:     Size  Location     Type
  1322 ;;  i               2   22[BANK0 ] int 
  1323 ;;  w               2   19[BANK0 ] int 
  1324 ;;  p               1   21[BANK0 ] _Bool 
  1325 ;; Return value:  Size  Location     Type
  1326 ;;                  1    wreg      void 
  1327 ;; Registers used:
  1328 ;;		wreg, fsr0l, fsr0h, status,2, status,0, pclath, cstack
  1329 ;; Tracked objects:
  1330 ;;		On entry : 0/0
  1331 ;;		On exit  : 0/0
  1332 ;;		Unchanged: 0/0
  1333 ;; Data sizes:     COMMON   BANK0   BANK1   BANK3   BANK2
  1334 ;;      Params:         0       4       0       0       0
  1335 ;;      Locals:         0       5       0       0       0
  1336 ;;      Temps:          0       0       0       0       0
  1337 ;;      Totals:         0       9       0       0       0
  1338 ;;Total ram usage:        9 bytes
  1339 ;; Hardware stack levels used: 1
  1340 ;; Hardware stack levels required when called: 3
  1341 ;; This function calls:
  1342 ;;		___lwdiv
  1343 ;;		___lwmod
  1344 ;;		_pad
  1345 ;; This function is called by:
  1346 ;;		_vfpfcnvrt
  1347 ;; This function uses a non-reentrant model
  1348 ;;
  1349                           
  1350     04F8                     _utoa:	
  1351                           ;psect for function _utoa
  1352                           
  1353     04F8                     l1123:	
  1354                           ;incstack = 0
  1355                           ; Regs used in _utoa: [wreg-fsr0h+status,2+status,0+pclath+cstack]
  1356                           
  1357                           
  1358                           ;C:\Program Files\Microchip\xc8\v3.10\pic\sources\c99\common\doprnt.c: 1001: static void
      +                           utoa(FILE *fp, vfpf_uint_t d);C:\Program Files\Microchip\xc8\v3.10\pic\sources\c99\comm
      +                          on\doprnt.c: 1002: {;C:\Program Files\Microchip\xc8\v3.10\pic\sources\c99\common\doprnt.
      +                          c: 1003:     int i, w;;C:\Program Files\Microchip\xc8\v3.10\pic\sources\c99\common\doprn
      +                          t.c: 1007:  _Bool p = 1;
  1359     04F8  3001               	movlw	1
  1360     04F9  1283               	bcf	3,5	;RP0=0, select bank0
  1361     04FA  1303               	bcf	3,6	;RP1=0, select bank0
  1362     04FB  00B5               	movwf	utoa@p
  1363     04FC                     l1125:
  1364                           
  1365                           ;C:\Program Files\Microchip\xc8\v3.10\pic\sources\c99\common\doprnt.c: 1019:     w = wid
      +                          th;
  1366     04FC  085D               	movf	_width+1,w
  1367     04FD  00B4               	movwf	utoa@w+1
  1368     04FE  085C               	movf	_width,w
  1369     04FF  00B3               	movwf	utoa@w
  1370                           
  1371                           ;C:\Program Files\Microchip\xc8\v3.10\pic\sources\c99\common\doprnt.c: 1022:     i = siz
      +                          eof(dbuf) - 1;
  1372     0500  301F               	movlw	31
  1373     0501  00B6               	movwf	utoa@i
  1374     0502  3000               	movlw	0
  1375     0503  00B7               	movwf	utoa@i+1
  1376     0504                     l1127:
  1377                           
  1378                           ;C:\Program Files\Microchip\xc8\v3.10\pic\sources\c99\common\doprnt.c: 1023:     dbuf[i]
      +                           = '\0';
  1379     0504  1683               	bsf	3,5	;RP0=1, select bank1
  1380     0505  1303               	bcf	3,6	;RP1=0, select bank1
  1381     0506  01BF               	clrf	(_dbuf^(0+128)+31)
  1382                           
  1383                           ;C:\Program Files\Microchip\xc8\v3.10\pic\sources\c99\common\doprnt.c: 1024:     while (
      +                          i && (d != 0
  1384     0507  2D3E               	goto	l1139
  1385     0508                     l1129:
  1386                           
  1387                           ;C:\Program Files\Microchip\xc8\v3.10\pic\sources\c99\common\doprnt.c: 1033:     )) {;C:
      +                          \Program Files\Microchip\xc8\v3.10\pic\sources\c99\common\doprnt.c: 1034:         --i;
  1388     0508  30FF               	movlw	255
  1389     0509  07B6               	addwf	utoa@i,f
  1390     050A  1803               	skipnc
  1391     050B  0AB7               	incf	utoa@i+1,f
  1392     050C  30FF               	movlw	255
  1393     050D  07B7               	addwf	utoa@i+1,f
  1394     050E                     l1131:
  1395                           
  1396                           ;C:\Program Files\Microchip\xc8\v3.10\pic\sources\c99\common\doprnt.c: 1035:         dbu
      +                          f[i] = '0' + (d % 10);
  1397     050E  0836               	movf	utoa@i,w
  1398     050F  3EA0               	addlw	(low (_dbuf| 0))& (0+255)
  1399     0510  0084               	movwf	4
  1400     0511  300A               	movlw	10
  1401     0512  00F0               	movwf	___lwmod@divisor
  1402     0513  3000               	movlw	0
  1403     0514  00F1               	movwf	___lwmod@divisor+1
  1404     0515  0832               	movf	utoa@d+1,w
  1405     0516  00F3               	movwf	___lwmod@dividend+1
  1406     0517  0831               	movf	utoa@d,w
  1407     0518  00F2               	movwf	___lwmod@dividend
  1408     0519  120A  118A  2392  120A  118A  	fcall	___lwmod
  1409     051E  0870               	movf	?___lwmod,w
  1410     051F  3E30               	addlw	48
  1411     0520  1383               	bcf	3,7	;select IRP bank1
  1412     0521  0080               	movwf	0
  1413     0522                     l1133:
  1414                           
  1415                           ;C:\Program Files\Microchip\xc8\v3.10\pic\sources\c99\common\doprnt.c: 1039:   p = 0;
  1416     0522  1283               	bcf	3,5	;RP0=0, select bank0
  1417     0523  1303               	bcf	3,6	;RP1=0, select bank0
  1418     0524  01B5               	clrf	utoa@p
  1419     0525                     l1135:
  1420                           
  1421                           ;C:\Program Files\Microchip\xc8\v3.10\pic\sources\c99\common\doprnt.c: 1041:         --w
      +                          ;
  1422     0525  30FF               	movlw	255
  1423     0526  07B3               	addwf	utoa@w,f
  1424     0527  1803               	skipnc
  1425     0528  0AB4               	incf	utoa@w+1,f
  1426     0529  30FF               	movlw	255
  1427     052A  07B4               	addwf	utoa@w+1,f
  1428     052B                     l1137:
  1429                           
  1430                           ;C:\Program Files\Microchip\xc8\v3.10\pic\sources\c99\common\doprnt.c: 1042:         d =
      +                           d / 10;
  1431     052B  300A               	movlw	10
  1432     052C  00F0               	movwf	___lwdiv@divisor
  1433     052D  3000               	movlw	0
  1434     052E  00F1               	movwf	___lwdiv@divisor+1
  1435     052F  0832               	movf	utoa@d+1,w
  1436     0530  00F3               	movwf	___lwdiv@dividend+1
  1437     0531  0831               	movf	utoa@d,w
  1438     0532  00F2               	movwf	___lwdiv@dividend
  1439     0533  120A  118A  23CA  120A  118A  	fcall	___lwdiv
  1440     0538  0871               	movf	?___lwdiv+1,w
  1441     0539  1283               	bcf	3,5	;RP0=0, select bank0
  1442     053A  1303               	bcf	3,6	;RP1=0, select bank0
  1443     053B  00B2               	movwf	utoa@d+1
  1444     053C  0870               	movf	?___lwdiv,w
  1445     053D  00B1               	movwf	utoa@d
  1446     053E                     l1139:
  1447                           
  1448                           ;C:\Program Files\Microchip\xc8\v3.10\pic\sources\c99\common\doprnt.c: 1024:     while (
      +                          i && (d != 0
  1449     053E  1283               	bcf	3,5	;RP0=0, select bank0
  1450     053F  0836               	movf	utoa@i,w
  1451     0540  0437               	iorwf	utoa@i+1,w
  1452     0541  1903               	btfsc	3,2
  1453     0542  2D44               	goto	u821
  1454     0543  2D45               	goto	u820
  1455     0544                     u821:
  1456     0544  2D50               	goto	l1145
  1457     0545                     u820:
  1458     0545                     l1141:
  1459     0545  0831               	movf	utoa@d,w
  1460     0546  0432               	iorwf	utoa@d+1,w
  1461     0547  1D03               	btfss	3,2
  1462     0548  2D4A               	goto	u831
  1463     0549  2D4B               	goto	u830
  1464     054A                     u831:
  1465     054A  2D08               	goto	l1129
  1466     054B                     u830:
  1467     054B                     l1143:
  1468     054B  0835               	movf	utoa@p,w
  1469     054C  1D03               	btfss	3,2
  1470     054D  2D4F               	goto	u841
  1471     054E  2D50               	goto	u840
  1472     054F                     u841:
  1473     054F  2D08               	goto	l1129
  1474     0550                     u840:
  1475     0550                     l1145:
  1476                           
  1477                           ;C:\Program Files\Microchip\xc8\v3.10\pic\sources\c99\common\doprnt.c: 1046:     return 
      +                          (void) pad(fp, &dbuf[i], w);
  1478     0550  082F               	movf	utoa@fp,w
  1479     0551  00A8               	movwf	pad@fp
  1480     0552  0830               	movf	utoa@fp+1,w
  1481     0553  00A9               	movwf	pad@fp+1
  1482     0554  0836               	movf	utoa@i,w
  1483     0555  3EA0               	addlw	(low (_dbuf| 0))& (0+255)
  1484     0556  00AA               	movwf	pad@buf
  1485     0557  0834               	movf	utoa@w+1,w
  1486     0558  00AC               	movwf	pad@p+1
  1487     0559  0833               	movf	utoa@w,w
  1488     055A  00AB               	movwf	pad@p
  1489     055B  120A  118A  24A5  120A  118A  	fcall	_pad
  1490     0560                     l637:
  1491     0560  0008               	return
  1492     0561                     __end_of_utoa:
  1493                           
  1494                           	psect	text5
  1495     04A5                     __ptext5:	
  1496 ;; *************** function _pad *****************
  1497 ;; Defined at:
  1498 ;;		line 193 in file "C:\Program Files\Microchip\xc8\v3.10\pic\sources\c99\common\doprnt.c"
  1499 ;; Parameters:    Size  Location     Type
  1500 ;;  fp              2    8[BANK0 ] PTR struct _IO_FILE
  1501 ;;		 -> sprintf@f(11), 
  1502 ;;  buf             1   10[BANK0 ] PTR unsigned char 
  1503 ;;		 -> dbuf(32), 
  1504 ;;  p               2   11[BANK0 ] int 
  1505 ;; Auto vars:     Size  Location     Type
  1506 ;;  i               2   13[BANK0 ] int 
  1507 ;; Return value:  Size  Location     Type
  1508 ;;                  1    wreg      void 
  1509 ;; Registers used:
  1510 ;;		wreg, fsr0l, fsr0h, status,2, status,0, pclath, cstack
  1511 ;; Tracked objects:
  1512 ;;		On entry : 0/0
  1513 ;;		On exit  : 0/0
  1514 ;;		Unchanged: 0/0
  1515 ;; Data sizes:     COMMON   BANK0   BANK1   BANK3   BANK2
  1516 ;;      Params:         0       5       0       0       0
  1517 ;;      Locals:         0       2       0       0       0
  1518 ;;      Temps:          1       0       0       0       0
  1519 ;;      Totals:         1       7       0       0       0
  1520 ;;Total ram usage:        8 bytes
  1521 ;; Hardware stack levels used: 1
  1522 ;; Hardware stack levels required when called: 2
  1523 ;; This function calls:
  1524 ;;		_fputc
  1525 ;;		_fputs
  1526 ;; This function is called by:
  1527 ;;		_utoa
  1528 ;; This function uses a non-reentrant model
  1529 ;;
  1530                           
  1531     04A5                     _pad:	
  1532                           ;psect for function _pad
  1533                           
  1534     04A5                     l1107:	
  1535                           ;incstack = 0
  1536                           ; Regs used in _pad: [wreg-fsr0h+status,2+status,0+pclath+cstack]
  1537                           
  1538                           
  1539                           ;C:\Program Files\Microchip\xc8\v3.10\pic\sources\c99\common\doprnt.c: 193: static void 
      +                          pad(FILE *fp, char *buf, int p);C:\Program Files\Microchip\xc8\v3.10\pic\sources\c99\com
      +                          mon\doprnt.c: 194: {;C:\Program Files\Microchip\xc8\v3.10\pic\sources\c99\common\doprnt.
      +                          c: 195:     int i;;C:\Program Files\Microchip\xc8\v3.10\pic\sources\c99\common\doprnt.c:
      +                           199:     if (flags & (1 << 0)) {
  1540     04A5  1283               	bcf	3,5	;RP0=0, select bank0
  1541     04A6  1303               	bcf	3,6	;RP1=0, select bank0
  1542     04A7  1C60               	btfss	_flags,0
  1543     04A8  2CAA               	goto	u781
  1544     04A9  2CAB               	goto	u780
  1545     04AA                     u781:
  1546     04AA  2CB6               	goto	l1111
  1547     04AB                     u780:
  1548     04AB                     l1109:
  1549                           
  1550                           ;C:\Program Files\Microchip\xc8\v3.10\pic\sources\c99\common\doprnt.c: 200:         fput
      +                          s((const char *)buf, fp);
  1551     04AB  082A               	movf	pad@buf,w
  1552     04AC  00A0               	movwf	fputs@s
  1553     04AD  0828               	movf	pad@fp,w
  1554     04AE  00A1               	movwf	fputs@fp
  1555     04AF  0829               	movf	pad@fp+1,w
  1556     04B0  00A2               	movwf	fputs@fp+1
  1557     04B1  120A  118A  2336  120A  118A  	fcall	_fputs
  1558     04B6                     l1111:
  1559                           
  1560                           ;C:\Program Files\Microchip\xc8\v3.10\pic\sources\c99\common\doprnt.c: 205:  if (p < 0) 
      +                          {
  1561     04B6  1283               	bcf	3,5	;RP0=0, select bank0
  1562     04B7  1303               	bcf	3,6	;RP1=0, select bank0
  1563     04B8  1FAC               	btfss	pad@p+1,7
  1564     04B9  2CBB               	goto	u791
  1565     04BA  2CBC               	goto	u790
  1566     04BB                     u791:
  1567     04BB  2CBE               	goto	l624
  1568     04BC                     u790:
  1569     04BC                     l1113:
  1570                           
  1571                           ;C:\Program Files\Microchip\xc8\v3.10\pic\sources\c99\common\doprnt.c: 206:   p = 0;
  1572     04BC  01AB               	clrf	pad@p
  1573     04BD  01AC               	clrf	pad@p+1
  1574     04BE                     l624:	
  1575                           ;C:\Program Files\Microchip\xc8\v3.10\pic\sources\c99\common\doprnt.c: 207:  }
  1576                           
  1577                           
  1578                           ;C:\Program Files\Microchip\xc8\v3.10\pic\sources\c99\common\doprnt.c: 208:     i = 0;
  1579     04BE  01AD               	clrf	pad@i
  1580     04BF  01AE               	clrf	pad@i+1
  1581                           
  1582                           ;C:\Program Files\Microchip\xc8\v3.10\pic\sources\c99\common\doprnt.c: 209:     while (i
      +                           < p) {
  1583     04C0  2CD8               	goto	l1119
  1584     04C1                     l1115:
  1585                           
  1586                           ;C:\Program Files\Microchip\xc8\v3.10\pic\sources\c99\common\doprnt.c: 210:         fput
      +                          c(' ', fp);
  1587     04C1  3020               	movlw	32
  1588     04C2  00F0               	movwf	fputc@c
  1589     04C3  3000               	movlw	0
  1590     04C4  00F1               	movwf	fputc@c+1
  1591     04C5  1283               	bcf	3,5	;RP0=0, select bank0
  1592     04C6  1303               	bcf	3,6	;RP1=0, select bank0
  1593     04C7  0828               	movf	pad@fp,w
  1594     04C8  00F2               	movwf	fputc@fp
  1595     04C9  0829               	movf	pad@fp+1,w
  1596     04CA  00F3               	movwf	fputc@fp+1
  1597     04CB  120A  118A  268F  120A  118A  	fcall	_fputc
  1598     04D0                     l1117:
  1599                           
  1600                           ;C:\Program Files\Microchip\xc8\v3.10\pic\sources\c99\common\doprnt.c: 211:         ++i;
  1601     04D0  3001               	movlw	1
  1602     04D1  1283               	bcf	3,5	;RP0=0, select bank0
  1603     04D2  1303               	bcf	3,6	;RP1=0, select bank0
  1604     04D3  07AD               	addwf	pad@i,f
  1605     04D4  1803               	skipnc
  1606     04D5  0AAE               	incf	pad@i+1,f
  1607     04D6  3000               	movlw	0
  1608     04D7  07AE               	addwf	pad@i+1,f
  1609     04D8                     l1119:
  1610                           
  1611                           ;C:\Program Files\Microchip\xc8\v3.10\pic\sources\c99\common\doprnt.c: 209:     while (i
      +                           < p) {
  1612     04D8  082E               	movf	pad@i+1,w
  1613     04D9  3A80               	xorlw	128
  1614     04DA  00FD               	movwf	??_pad
  1615     04DB  082C               	movf	pad@p+1,w
  1616     04DC  3A80               	xorlw	128
  1617     04DD  027D               	subwf	??_pad,w
  1618     04DE  1D03               	skipz
  1619     04DF  2CE2               	goto	u805
  1620     04E0  082B               	movf	pad@p,w
  1621     04E1  022D               	subwf	pad@i,w
  1622     04E2                     u805:
  1623     04E2  1C03               	skipc
  1624     04E3  2CE5               	goto	u801
  1625     04E4  2CE6               	goto	u800
  1626     04E5                     u801:
  1627     04E5  2CC1               	goto	l1115
  1628     04E6                     u800:
  1629     04E6                     l627:
  1630                           
  1631                           ;C:\Program Files\Microchip\xc8\v3.10\pic\sources\c99\common\doprnt.c: 216:     if (!(fl
      +                          ags & (1 << 0))) {
  1632     04E6  1283               	bcf	3,5	;RP0=0, select bank0
  1633     04E7  1303               	bcf	3,6	;RP1=0, select bank0
  1634     04E8  1860               	btfsc	_flags,0
  1635     04E9  2CEB               	goto	u811
  1636     04EA  2CEC               	goto	u810
  1637     04EB                     u811:
  1638     04EB  2CF7               	goto	l629
  1639     04EC                     u810:
  1640     04EC                     l1121:
  1641                           
  1642                           ;C:\Program Files\Microchip\xc8\v3.10\pic\sources\c99\common\doprnt.c: 218:         fput
      +                          s((const char *)buf, fp);
  1643     04EC  082A               	movf	pad@buf,w
  1644     04ED  00A0               	movwf	fputs@s
  1645     04EE  0828               	movf	pad@fp,w
  1646     04EF  00A1               	movwf	fputs@fp
  1647     04F0  0829               	movf	pad@fp+1,w
  1648     04F1  00A2               	movwf	fputs@fp+1
  1649     04F2  120A  118A  2336  120A  118A  	fcall	_fputs
  1650     04F7                     l629:
  1651     04F7  0008               	return
  1652     04F8                     __end_of_pad:
  1653                           
  1654                           	psect	text6
  1655     0336                     __ptext6:	
  1656 ;; *************** function _fputs *****************
  1657 ;; Defined at:
  1658 ;;		line 8 in file "C:\Program Files\Microchip\xc8\v3.10\pic\sources\c99\common\nf_fputs.c"
  1659 ;; Parameters:    Size  Location     Type
  1660 ;;  s               1    0[BANK0 ] PTR const unsigned char 
  1661 ;;		 -> dbuf(32), 
  1662 ;;  fp              2    1[BANK0 ] PTR struct _IO_FILE
  1663 ;;		 -> sprintf@f(11), 
  1664 ;; Auto vars:     Size  Location     Type
  1665 ;;  i               2    6[BANK0 ] int 
  1666 ;;  c               1    5[BANK0 ] unsigned char 
  1667 ;; Return value:  Size  Location     Type
  1668 ;;                  2    0[BANK0 ] int 
  1669 ;; Registers used:
  1670 ;;		wreg, fsr0l, fsr0h, status,2, status,0, pclath, cstack
  1671 ;; Tracked objects:
  1672 ;;		On entry : 0/0
  1673 ;;		On exit  : 0/0
  1674 ;;		Unchanged: 0/0
  1675 ;; Data sizes:     COMMON   BANK0   BANK1   BANK3   BANK2
  1676 ;;      Params:         0       3       0       0       0
  1677 ;;      Locals:         0       3       0       0       0
  1678 ;;      Temps:          0       2       0       0       0
  1679 ;;      Totals:         0       8       0       0       0
  1680 ;;Total ram usage:        8 bytes
  1681 ;; Hardware stack levels used: 1
  1682 ;; Hardware stack levels required when called: 1
  1683 ;; This function calls:
  1684 ;;		_fputc
  1685 ;; This function is called by:
  1686 ;;		_pad
  1687 ;; This function uses a non-reentrant model
  1688 ;;
  1689                           
  1690     0336                     _fputs:	
  1691                           ;psect for function _fputs
  1692                           
  1693     0336                     l1037:	
  1694                           ;incstack = 0
  1695                           ; Regs used in _fputs: [wreg-fsr0h+status,2+status,0+pclath+cstack]
  1696                           
  1697     0336  1283               	bcf	3,5	;RP0=0, select bank0
  1698     0337  1303               	bcf	3,6	;RP1=0, select bank0
  1699     0338  01A6               	clrf	fputs@i
  1700     0339  01A7               	clrf	fputs@i+1
  1701     033A  2B53               	goto	l1043
  1702     033B                     l1039:
  1703     033B  0825               	movf	fputs@c,w
  1704     033C  00A3               	movwf	??_fputs
  1705     033D  01A4               	clrf	??_fputs+1
  1706     033E  0823               	movf	??_fputs,w
  1707     033F  00F0               	movwf	fputc@c
  1708     0340  0824               	movf	??_fputs+1,w
  1709     0341  00F1               	movwf	fputc@c+1
  1710     0342  0821               	movf	fputs@fp,w
  1711     0343  00F2               	movwf	fputc@fp
  1712     0344  0822               	movf	fputs@fp+1,w
  1713     0345  00F3               	movwf	fputc@fp+1
  1714     0346  120A  118A  268F  120A  118A  	fcall	_fputc
  1715     034B                     l1041:
  1716     034B  3001               	movlw	1
  1717     034C  1283               	bcf	3,5	;RP0=0, select bank0
  1718     034D  1303               	bcf	3,6	;RP1=0, select bank0
  1719     034E  07A6               	addwf	fputs@i,f
  1720     034F  1803               	skipnc
  1721     0350  0AA7               	incf	fputs@i+1,f
  1722     0351  3000               	movlw	0
  1723     0352  07A7               	addwf	fputs@i+1,f
  1724     0353                     l1043:
  1725     0353  0826               	movf	fputs@i,w
  1726     0354  0720               	addwf	fputs@s,w
  1727     0355  00A3               	movwf	??_fputs
  1728     0356  0823               	movf	??_fputs,w
  1729     0357  0084               	movwf	4
  1730     0358  1383               	bcf	3,7	;select IRP bank0
  1731     0359  0800               	movf	0,w
  1732     035A  00A5               	movwf	fputs@c
  1733     035B  0825               	movf	fputs@c,w
  1734     035C  1D03               	btfss	3,2
  1735     035D  2B5F               	goto	u601
  1736     035E  2B60               	goto	u600
  1737     035F                     u601:
  1738     035F  2B3B               	goto	l1039
  1739     0360                     u600:
  1740     0360                     l682:
  1741     0360  0008               	return
  1742     0361                     __end_of_fputs:
  1743                           
  1744                           	psect	text7
  1745     068F                     __ptext7:	
  1746 ;; *************** function _fputc *****************
  1747 ;; Defined at:
  1748 ;;		line 8 in file "C:\Program Files\Microchip\xc8\v3.10\pic\sources\c99\common\nf_fputc.c"
  1749 ;; Parameters:    Size  Location     Type
  1750 ;;  c               2    0[COMMON] int 
  1751 ;;  fp              2    2[COMMON] PTR struct _IO_FILE
  1752 ;;		 -> sprintf@f(11), 
  1753 ;; Auto vars:     Size  Location     Type
  1754 ;;		None
  1755 ;; Return value:  Size  Location     Type
  1756 ;;                  2    0[COMMON] int 
  1757 ;; Registers used:
  1758 ;;		wreg, fsr0l, fsr0h, status,2, status,0, pclath, cstack
  1759 ;; Tracked objects:
  1760 ;;		On entry : 0/0
  1761 ;;		On exit  : 0/0
  1762 ;;		Unchanged: 0/0
  1763 ;; Data sizes:     COMMON   BANK0   BANK1   BANK3   BANK2
  1764 ;;      Params:         4       0       0       0       0
  1765 ;;      Locals:         0       0       0       0       0
  1766 ;;      Temps:          9       0       0       0       0
  1767 ;;      Totals:        13       0       0       0       0
  1768 ;;Total ram usage:       13 bytes
  1769 ;; Hardware stack levels used: 1
  1770 ;; This function calls:
  1771 ;;		_putch
  1772 ;; This function is called by:
  1773 ;;		_pad
  1774 ;;		_vfpfcnvrt
  1775 ;;		_fputs
  1776 ;; This function uses a non-reentrant model
  1777 ;;
  1778                           
  1779     068F                     _fputc:	
  1780                           ;psect for function _fputc
  1781                           
  1782     068F                     l1023:	
  1783                           ;incstack = 0
  1784                           ; Regs used in _fputc: [wreg-fsr0h+status,2+status,0+pclath+cstack]
  1785                           
  1786     068F  0872               	movf	fputc@fp,w
  1787     0690  0473               	iorwf	fputc@fp+1,w
  1788     0691  1903               	btfsc	3,2
  1789     0692  2E94               	goto	u551
  1790     0693  2E95               	goto	u550
  1791     0694                     u551:
  1792     0694  2E9B               	goto	l1027
  1793     0695                     u550:
  1794     0695                     l1025:
  1795     0695  0872               	movf	fputc@fp,w
  1796     0696  0473               	iorwf	fputc@fp+1,w
  1797     0697  1D03               	btfss	3,2
  1798     0698  2E9A               	goto	u561
  1799     0699  2E9B               	goto	u560
  1800     069A                     u561:
  1801     069A  2EA2               	goto	l1029
  1802     069B                     u560:
  1803     069B                     l1027:
  1804     069B  0870               	movf	fputc@c,w
  1805     069C  120A  118A  2257  120A  118A  	fcall	_putch
  1806     06A1  2F28               	goto	l674
  1807     06A2                     l1029:
  1808     06A2  0872               	movf	fputc@fp,w
  1809     06A3  3E09               	addlw	9
  1810     06A4  00F4               	movwf	??_fputc
  1811     06A5  0873               	movf	fputc@fp+1,w
  1812     06A6  1803               	skipnc
  1813     06A7  3E01               	addlw	1
  1814     06A8  3E00               	addlw	0
  1815     06A9  00F5               	movwf	??_fputc+1
  1816     06AA  0874               	movf	??_fputc,w
  1817     06AB  0084               	movwf	4
  1818     06AC  1783               	bsf	3,7
  1819     06AD  1C75               	btfss	??_fputc+1,0
  1820     06AE  1383               	bcf	3,7
  1821     06AF  0800               	movf	0,w
  1822     06B0  00F6               	movwf	??_fputc+2
  1823     06B1  0A84               	incf	4,f
  1824     06B2  0800               	movf	0,w
  1825     06B3  00F7               	movwf	??_fputc+3
  1826     06B4  0876               	movf	??_fputc+2,w
  1827     06B5  0477               	iorwf	??_fputc+3,w
  1828     06B6  1903               	btfsc	3,2
  1829     06B7  2EB9               	goto	u571
  1830     06B8  2EBA               	goto	u570
  1831     06B9                     u571:
  1832     06B9  2EEC               	goto	l1033
  1833     06BA                     u570:
  1834     06BA                     l1031:
  1835     06BA  0872               	movf	fputc@fp,w
  1836     06BB  3E09               	addlw	9
  1837     06BC  00F4               	movwf	??_fputc
  1838     06BD  0873               	movf	fputc@fp+1,w
  1839     06BE  1803               	skipnc
  1840     06BF  3E01               	addlw	1
  1841     06C0  3E00               	addlw	0
  1842     06C1  00F5               	movwf	??_fputc+1
  1843     06C2  0874               	movf	??_fputc,w
  1844     06C3  0084               	movwf	4
  1845     06C4  1783               	bsf	3,7
  1846     06C5  1C75               	btfss	??_fputc+1,0
  1847     06C6  1383               	bcf	3,7
  1848     06C7  0800               	movf	0,w
  1849     06C8  00F6               	movwf	??_fputc+2
  1850     06C9  0A84               	incf	4,f
  1851     06CA  0800               	movf	0,w
  1852     06CB  00F7               	movwf	??_fputc+3
  1853     06CC  0872               	movf	fputc@fp,w
  1854     06CD  3E02               	addlw	2
  1855     06CE  00F8               	movwf	??_fputc+4
  1856     06CF  0873               	movf	fputc@fp+1,w
  1857     06D0  1803               	skipnc
  1858     06D1  3E01               	addlw	1
  1859     06D2  3E00               	addlw	0
  1860     06D3  00F9               	movwf	??_fputc+5
  1861     06D4  0878               	movf	??_fputc+4,w
  1862     06D5  0084               	movwf	4
  1863     06D6  1783               	bsf	3,7
  1864     06D7  1C79               	btfss	??_fputc+5,0
  1865     06D8  1383               	bcf	3,7
  1866     06D9  0800               	movf	0,w
  1867     06DA  00FA               	movwf	??_fputc+6
  1868     06DB  0A84               	incf	4,f
  1869     06DC  0800               	movf	0,w
  1870     06DD  00FB               	movwf	??_fputc+7
  1871     06DE  087B               	movf	??_fputc+7,w
  1872     06DF  3A80               	xorlw	128
  1873     06E0  00FC               	movwf	??_fputc+8
  1874     06E1  0877               	movf	??_fputc+3,w
  1875     06E2  3A80               	xorlw	128
  1876     06E3  027C               	subwf	??_fputc+8,w
  1877     06E4  1D03               	skipz
  1878     06E5  2EE8               	goto	u585
  1879     06E6  0876               	movf	??_fputc+2,w
  1880     06E7  027A               	subwf	??_fputc+6,w
  1881     06E8                     u585:
  1882     06E8  1803               	skipnc
  1883     06E9  2EEB               	goto	u581
  1884     06EA  2EEC               	goto	u580
  1885     06EB                     u581:
  1886     06EB  2F28               	goto	l674
  1887     06EC                     u580:
  1888     06EC                     l1033:
  1889     06EC  0872               	movf	fputc@fp,w
  1890     06ED  0084               	movwf	4
  1891     06EE  1783               	bsf	3,7
  1892     06EF  1C73               	btfss	fputc@fp+1,0
  1893     06F0  1383               	bcf	3,7
  1894     06F1  0800               	movf	0,w
  1895     06F2  00F4               	movwf	??_fputc
  1896     06F3  0A84               	incf	4,f
  1897     06F4  0800               	movf	0,w
  1898     06F5  00F5               	movwf	??_fputc+1
  1899     06F6  0872               	movf	fputc@fp,w
  1900     06F7  3E02               	addlw	2
  1901     06F8  00F6               	movwf	??_fputc+2
  1902     06F9  0873               	movf	fputc@fp+1,w
  1903     06FA  1803               	skipnc
  1904     06FB  3E01               	addlw	1
  1905     06FC  3E00               	addlw	0
  1906     06FD  00F7               	movwf	??_fputc+3
  1907     06FE  0876               	movf	??_fputc+2,w
  1908     06FF  0084               	movwf	4
  1909     0700  1783               	bsf	3,7
  1910     0701  1C77               	btfss	??_fputc+3,0
  1911     0702  1383               	bcf	3,7
  1912     0703  0800               	movf	0,w
  1913     0704  0774               	addwf	??_fputc,w
  1914     0705  00F9               	movwf	??_fputc+5
  1915     0706  0875               	movf	??_fputc+1,w
  1916     0707  00F8               	movwf	??_fputc+4
  1917     0708  1803               	skipnc
  1918     0709  0AF8               	incf	??_fputc+4,f
  1919     070A  1F80               	btfss	0,7
  1920     070B  2F0D               	goto	u590
  1921     070C  03F8               	decf	??_fputc+4,f
  1922     070D                     u590:
  1923     070D  0878               	movf	??_fputc+4,w
  1924     070E  00FA               	movwf	??_fputc+6
  1925     070F  0879               	movf	??_fputc+5,w
  1926     0710  0084               	movwf	4
  1927     0711  1783               	bsf	3,7
  1928     0712  1C7A               	btfss	??_fputc+6,0
  1929     0713  1383               	bcf	3,7
  1930     0714  0870               	movf	fputc@c,w
  1931     0715  0080               	movwf	0
  1932     0716  0872               	movf	fputc@fp,w
  1933     0717  3E02               	addlw	2
  1934     0718  00F4               	movwf	??_fputc
  1935     0719  0873               	movf	fputc@fp+1,w
  1936     071A  1803               	skipnc
  1937     071B  3E01               	addlw	1
  1938     071C  3E00               	addlw	0
  1939     071D  00F5               	movwf	??_fputc+1
  1940     071E  0874               	movf	??_fputc,w
  1941     071F  0084               	movwf	4
  1942     0720  1783               	bsf	3,7
  1943     0721  1C75               	btfss	??_fputc+1,0
  1944     0722  1383               	bcf	3,7
  1945     0723  3001               	movlw	1
  1946     0724  0780               	addwf	0,f
  1947     0725  0A84               	incf	4,f
  1948     0726  1803               	skipnc
  1949     0727  0A80               	incf	0,f
  1950     0728                     l674:
  1951     0728  0008               	return
  1952     0729                     __end_of_fputc:
  1953                           
  1954                           	psect	text8
  1955     0257                     __ptext8:	
  1956 ;; *************** function _putch *****************
  1957 ;; Defined at:
  1958 ;;		line 7 in file "C:\Program Files\Microchip\xc8\v3.10\pic\sources\c99\common\putch.c"
  1959 ;; Parameters:    Size  Location     Type
  1960 ;;  c               1    wreg     unsigned char 
  1961 ;; Auto vars:     Size  Location     Type
  1962 ;;  c               1    0[COMMON] unsigned char 
  1963 ;; Return value:  Size  Location     Type
  1964 ;;                  1    wreg      void 
  1965 ;; Registers used:
  1966 ;;		wreg
  1967 ;; Tracked objects:
  1968 ;;		On entry : 0/0
  1969 ;;		On exit  : 0/0
  1970 ;;		Unchanged: 0/0
  1971 ;; Data sizes:     COMMON   BANK0   BANK1   BANK3   BANK2
  1972 ;;      Params:         0       0       0       0       0
  1973 ;;      Locals:         0       0       0       0       0
  1974 ;;      Temps:          0       0       0       0       0
  1975 ;;      Totals:         0       0       0       0       0
  1976 ;;Total ram usage:        0 bytes
  1977 ;; Hardware stack levels used: 1
  1978 ;; This function calls:
  1979 ;;		Nothing
  1980 ;; This function is called by:
  1981 ;;		_fputc
  1982 ;; This function uses a non-reentrant model
  1983 ;;
  1984                           
  1985     0257                     _putch:	
  1986                           ;psect for function _putch
  1987                           
  1988     0257                     l685:	
  1989                           ;incstack = 0
  1990                           ; Regs used in _putch: [wreg]
  1991                           
  1992     0257  0008               	return
  1993     0258                     __end_of_putch:
  1994                           
  1995                           	psect	text9
  1996     0392                     __ptext9:	
  1997 ;; *************** function ___lwmod *****************
  1998 ;; Defined at:
  1999 ;;		line 5 in file "C:\Program Files\Microchip\xc8\v3.10\pic\sources\c99\common\lwmod.c"
  2000 ;; Parameters:    Size  Location     Type
  2001 ;;  divisor         2    0[COMMON] unsigned int 
  2002 ;;  dividend        2    2[COMMON] unsigned int 
  2003 ;; Auto vars:     Size  Location     Type
  2004 ;;  counter         1    4[COMMON] unsigned char 
  2005 ;; Return value:  Size  Location     Type
  2006 ;;                  2    0[COMMON] unsigned int 
  2007 ;; Registers used:
  2008 ;;		wreg, status,2, status,0
  2009 ;; Tracked objects:
  2010 ;;		On entry : 0/0
  2011 ;;		On exit  : 0/0
  2012 ;;		Unchanged: 0/0
  2013 ;; Data sizes:     COMMON   BANK0   BANK1   BANK3   BANK2
  2014 ;;      Params:         4       0       0       0       0
  2015 ;;      Locals:         1       0       0       0       0
  2016 ;;      Temps:          0       0       0       0       0
  2017 ;;      Totals:         5       0       0       0       0
  2018 ;;Total ram usage:        5 bytes
  2019 ;; Hardware stack levels used: 1
  2020 ;; This function calls:
  2021 ;;		Nothing
  2022 ;; This function is called by:
  2023 ;;		_utoa
  2024 ;; This function uses a non-reentrant model
  2025 ;;
  2026                           
  2027     0392                     ___lwmod:	
  2028                           ;psect for function ___lwmod
  2029                           
  2030     0392                     l1085:	
  2031                           ;incstack = 0
  2032                           ; Regs used in ___lwmod: [wreg+status,2+status,0]
  2033                           
  2034     0392  0870               	movf	___lwmod@divisor,w
  2035     0393  0471               	iorwf	___lwmod@divisor+1,w
  2036     0394  1903               	btfsc	3,2
  2037     0395  2B97               	goto	u721
  2038     0396  2B98               	goto	u720
  2039     0397                     u721:
  2040     0397  2BC5               	goto	l1103
  2041     0398                     u720:
  2042     0398                     l1087:
  2043     0398  3001               	movlw	1
  2044     0399  00F4               	movwf	___lwmod@counter
  2045     039A  2BA4               	goto	l1093
  2046     039B                     l1089:
  2047     039B  3001               	movlw	1
  2048     039C                     u735:
  2049     039C  1003               	clrc
  2050     039D  0DF0               	rlf	___lwmod@divisor,f
  2051     039E  0DF1               	rlf	___lwmod@divisor+1,f
  2052     039F  3EFF               	addlw	-1
  2053     03A0  1D03               	skipz
  2054     03A1  2B9C               	goto	u735
  2055     03A2                     l1091:
  2056     03A2  3001               	movlw	1
  2057     03A3  07F4               	addwf	___lwmod@counter,f
  2058     03A4                     l1093:
  2059     03A4  1FF1               	btfss	___lwmod@divisor+1,7
  2060     03A5  2BA7               	goto	u741
  2061     03A6  2BA8               	goto	u740
  2062     03A7                     u741:
  2063     03A7  2B9B               	goto	l1089
  2064     03A8                     u740:
  2065     03A8                     l1095:
  2066     03A8  0871               	movf	___lwmod@divisor+1,w
  2067     03A9  0273               	subwf	___lwmod@dividend+1,w
  2068     03AA  1D03               	skipz
  2069     03AB  2BAE               	goto	u755
  2070     03AC  0870               	movf	___lwmod@divisor,w
  2071     03AD  0272               	subwf	___lwmod@dividend,w
  2072     03AE                     u755:
  2073     03AE  1C03               	skipc
  2074     03AF  2BB1               	goto	u751
  2075     03B0  2BB2               	goto	u750
  2076     03B1                     u751:
  2077     03B1  2BB8               	goto	l1099
  2078     03B2                     u750:
  2079     03B2                     l1097:
  2080     03B2  0870               	movf	___lwmod@divisor,w
  2081     03B3  02F2               	subwf	___lwmod@dividend,f
  2082     03B4  0871               	movf	___lwmod@divisor+1,w
  2083     03B5  1C03               	skipc
  2084     03B6  03F3               	decf	___lwmod@dividend+1,f
  2085     03B7  02F3               	subwf	___lwmod@dividend+1,f
  2086     03B8                     l1099:
  2087     03B8  3001               	movlw	1
  2088     03B9                     u765:
  2089     03B9  1003               	clrc
  2090     03BA  0CF1               	rrf	___lwmod@divisor+1,f
  2091     03BB  0CF0               	rrf	___lwmod@divisor,f
  2092     03BC  3EFF               	addlw	-1
  2093     03BD  1D03               	skipz
  2094     03BE  2BB9               	goto	u765
  2095     03BF                     l1101:
  2096     03BF  3001               	movlw	1
  2097     03C0  02F4               	subwf	___lwmod@counter,f
  2098     03C1  1D03               	btfss	3,2
  2099     03C2  2BC4               	goto	u771
  2100     03C3  2BC5               	goto	u770
  2101     03C4                     u771:
  2102     03C4  2BA8               	goto	l1095
  2103     03C5                     u770:
  2104     03C5                     l1103:
  2105     03C5  0873               	movf	___lwmod@dividend+1,w
  2106     03C6  00F1               	movwf	?___lwmod+1
  2107     03C7  0872               	movf	___lwmod@dividend,w
  2108     03C8  00F0               	movwf	?___lwmod
  2109     03C9                     l433:
  2110     03C9  0008               	return
  2111     03CA                     __end_of___lwmod:
  2112                           
  2113                           	psect	text10
  2114     03CA                     __ptext10:	
  2115 ;; *************** function ___lwdiv *****************
  2116 ;; Defined at:
  2117 ;;		line 5 in file "C:\Program Files\Microchip\xc8\v3.10\pic\sources\c99\common\lwdiv.c"
  2118 ;; Parameters:    Size  Location     Type
  2119 ;;  divisor         2    0[COMMON] unsigned int 
  2120 ;;  dividend        2    2[COMMON] unsigned int 
  2121 ;; Auto vars:     Size  Location     Type
  2122 ;;  quotient        2    4[COMMON] unsigned int 
  2123 ;;  counter         1    6[COMMON] unsigned char 
  2124 ;; Return value:  Size  Location     Type
  2125 ;;                  2    0[COMMON] unsigned int 
  2126 ;; Registers used:
  2127 ;;		wreg, status,2, status,0
  2128 ;; Tracked objects:
  2129 ;;		On entry : 0/0
  2130 ;;		On exit  : 0/0
  2131 ;;		Unchanged: 0/0
  2132 ;; Data sizes:     COMMON   BANK0   BANK1   BANK3   BANK2
  2133 ;;      Params:         4       0       0       0       0
  2134 ;;      Locals:         3       0       0       0       0
  2135 ;;      Temps:          0       0       0       0       0
  2136 ;;      Totals:         7       0       0       0       0
  2137 ;;Total ram usage:        7 bytes
  2138 ;; Hardware stack levels used: 1
  2139 ;; This function calls:
  2140 ;;		Nothing
  2141 ;; This function is called by:
  2142 ;;		_utoa
  2143 ;; This function uses a non-reentrant model
  2144 ;;
  2145                           
  2146     03CA                     ___lwdiv:	
  2147                           ;psect for function ___lwdiv
  2148                           
  2149     03CA                     l1059:	
  2150                           ;incstack = 0
  2151                           ; Regs used in ___lwdiv: [wreg+status,2+status,0]
  2152                           
  2153     03CA  01F4               	clrf	___lwdiv@quotient
  2154     03CB  01F5               	clrf	___lwdiv@quotient+1
  2155     03CC                     l1061:
  2156     03CC  0870               	movf	___lwdiv@divisor,w
  2157     03CD  0471               	iorwf	___lwdiv@divisor+1,w
  2158     03CE  1903               	btfsc	3,2
  2159     03CF  2BD1               	goto	u651
  2160     03D0  2BD2               	goto	u650
  2161     03D1                     u651:
  2162     03D1  2C07               	goto	l1081
  2163     03D2                     u650:
  2164     03D2                     l1063:
  2165     03D2  3001               	movlw	1
  2166     03D3  00F6               	movwf	___lwdiv@counter
  2167     03D4  2BDE               	goto	l1069
  2168     03D5                     l1065:
  2169     03D5  3001               	movlw	1
  2170     03D6                     u665:
  2171     03D6  1003               	clrc
  2172     03D7  0DF0               	rlf	___lwdiv@divisor,f
  2173     03D8  0DF1               	rlf	___lwdiv@divisor+1,f
  2174     03D9  3EFF               	addlw	-1
  2175     03DA  1D03               	skipz
  2176     03DB  2BD6               	goto	u665
  2177     03DC                     l1067:
  2178     03DC  3001               	movlw	1
  2179     03DD  07F6               	addwf	___lwdiv@counter,f
  2180     03DE                     l1069:
  2181     03DE  1FF1               	btfss	___lwdiv@divisor+1,7
  2182     03DF  2BE1               	goto	u671
  2183     03E0  2BE2               	goto	u670
  2184     03E1                     u671:
  2185     03E1  2BD5               	goto	l1065
  2186     03E2                     u670:
  2187     03E2                     l1071:
  2188     03E2  3001               	movlw	1
  2189     03E3                     u685:
  2190     03E3  1003               	clrc
  2191     03E4  0DF4               	rlf	___lwdiv@quotient,f
  2192     03E5  0DF5               	rlf	___lwdiv@quotient+1,f
  2193     03E6  3EFF               	addlw	-1
  2194     03E7  1D03               	skipz
  2195     03E8  2BE3               	goto	u685
  2196     03E9  0871               	movf	___lwdiv@divisor+1,w
  2197     03EA  0273               	subwf	___lwdiv@dividend+1,w
  2198     03EB  1D03               	skipz
  2199     03EC  2BEF               	goto	u695
  2200     03ED  0870               	movf	___lwdiv@divisor,w
  2201     03EE  0272               	subwf	___lwdiv@dividend,w
  2202     03EF                     u695:
  2203     03EF  1C03               	skipc
  2204     03F0  2BF2               	goto	u691
  2205     03F1  2BF3               	goto	u690
  2206     03F2                     u691:
  2207     03F2  2BFA               	goto	l1077
  2208     03F3                     u690:
  2209     03F3                     l1073:
  2210     03F3  0870               	movf	___lwdiv@divisor,w
  2211     03F4  02F2               	subwf	___lwdiv@dividend,f
  2212     03F5  0871               	movf	___lwdiv@divisor+1,w
  2213     03F6  1C03               	skipc
  2214     03F7  03F3               	decf	___lwdiv@dividend+1,f
  2215     03F8  02F3               	subwf	___lwdiv@dividend+1,f
  2216     03F9                     l1075:
  2217     03F9  1474               	bsf	___lwdiv@quotient,0
  2218     03FA                     l1077:
  2219     03FA  3001               	movlw	1
  2220     03FB                     u705:
  2221     03FB  1003               	clrc
  2222     03FC  0CF1               	rrf	___lwdiv@divisor+1,f
  2223     03FD  0CF0               	rrf	___lwdiv@divisor,f
  2224     03FE  3EFF               	addlw	-1
  2225     03FF  1D03               	skipz
  2226     0400  2BFB               	goto	u705
  2227     0401                     l1079:
  2228     0401  3001               	movlw	1
  2229     0402  02F6               	subwf	___lwdiv@counter,f
  2230     0403  1D03               	btfss	3,2
  2231     0404  2C06               	goto	u711
  2232     0405  2C07               	goto	u710
  2233     0406                     u711:
  2234     0406  2BE2               	goto	l1071
  2235     0407                     u710:
  2236     0407                     l1081:
  2237     0407  0875               	movf	___lwdiv@quotient+1,w
  2238     0408  00F1               	movwf	?___lwdiv+1
  2239     0409  0874               	movf	___lwdiv@quotient,w
  2240     040A  00F0               	movwf	?___lwdiv
  2241     040B                     l423:
  2242     040B  0008               	return
  2243     040C                     __end_of___lwdiv:
  2244                           
  2245                           	psect	text11
  2246     0452                     __ptext11:	
  2247 ;; *************** function _read_prec_or_width *****************
  2248 ;; Defined at:
  2249 ;;		line 1158 in file "C:\Program Files\Microchip\xc8\v3.10\pic\sources\c99\common\doprnt.c"
  2250 ;; Parameters:    Size  Location     Type
  2251 ;;  fmt             1    6[COMMON] PTR PTR const unsigned c
  2252 ;;		 -> vfprintf@cfmt(1), 
  2253 ;;  ap              1    7[COMMON] PTR PTR void [1]
  2254 ;;		 -> sprintf@ap(1), 
  2255 ;; Auto vars:     Size  Location     Type
  2256 ;;  c               1    9[COMMON] unsigned char 
  2257 ;;  n               2   10[COMMON] int 
  2258 ;; Return value:  Size  Location     Type
  2259 ;;                  2    6[COMMON] int 
  2260 ;; Registers used:
  2261 ;;		wreg, fsr0l, fsr0h, status,2, status,0, pclath, cstack
  2262 ;; Tracked objects:
  2263 ;;		On entry : 0/0
  2264 ;;		On exit  : 0/0
  2265 ;;		Unchanged: 0/0
  2266 ;; Data sizes:     COMMON   BANK0   BANK1   BANK3   BANK2
  2267 ;;      Params:         2       0       0       0       0
  2268 ;;      Locals:         3       0       0       0       0
  2269 ;;      Temps:          1       0       0       0       0
  2270 ;;      Totals:         6       0       0       0       0
  2271 ;;Total ram usage:        6 bytes
  2272 ;; Hardware stack levels used: 1
  2273 ;; Hardware stack levels required when called: 1
  2274 ;; This function calls:
  2275 ;;		___wmul
  2276 ;; This function is called by:
  2277 ;;		_vfpfcnvrt
  2278 ;; This function uses a non-reentrant model
  2279 ;;
  2280                           
  2281     0452                     _read_prec_or_width:	
  2282                           ;psect for function _read_prec_or_width
  2283                           
  2284     0452                     l1149:	
  2285                           ;incstack = 0
  2286                           ; Regs used in _read_prec_or_width: [wreg-fsr0h+status,2+status,0+pclath+cstack]
  2287                           
  2288                           
  2289                           ;C:\Program Files\Microchip\xc8\v3.10\pic\sources\c99\common\doprnt.c: 1159:     int n =
      +                           0;
  2290     0452  01FA               	clrf	read_prec_or_width@n
  2291     0453  01FB               	clrf	read_prec_or_width@n+1
  2292     0454                     l1151:
  2293                           
  2294                           ;C:\Program Files\Microchip\xc8\v3.10\pic\sources\c99\common\doprnt.c: 1160:     if ((*f
      +                          mt)[0] == '*') {
  2295     0454  0876               	movf	read_prec_or_width@fmt,w
  2296     0455  0084               	movwf	4
  2297     0456  1383               	bcf	3,7	;select IRP bank0
  2298     0457  0800               	movf	0,w
  2299     0458  0084               	movwf	4
  2300     0459  120A  118A  2003  120A  118A  	fcall	stringdir
  2301     045E  3A2A               	xorlw	42
  2302     045F  1D03               	skipz
  2303     0460  2C62               	goto	u851
  2304     0461  2C63               	goto	u850
  2305     0462                     u851:
  2306     0462  2C8F               	goto	l1159
  2307     0463                     u850:
  2308     0463                     l1153:
  2309                           
  2310                           ;C:\Program Files\Microchip\xc8\v3.10\pic\sources\c99\common\doprnt.c: 1161:         ++*
      +                          fmt;
  2311     0463  0876               	movf	read_prec_or_width@fmt,w
  2312     0464  0084               	movwf	4
  2313     0465  3001               	movlw	1
  2314     0466  0780               	addwf	0,f
  2315                           
  2316                           ;C:\Program Files\Microchip\xc8\v3.10\pic\sources\c99\common\doprnt.c: 1162:         n =
      +                           (*(int *)__va_arg(*(int **)*ap, (int)0));
  2317     0467  0877               	movf	read_prec_or_width@ap,w
  2318     0468  0084               	movwf	4
  2319     0469  0800               	movf	0,w
  2320     046A  00F8               	movwf	??_read_prec_or_width
  2321     046B  3002               	movlw	2
  2322     046C  0780               	addwf	0,f
  2323     046D  0878               	movf	??_read_prec_or_width,w
  2324     046E  0084               	movwf	4
  2325     046F  0800               	movf	0,w
  2326     0470  00FA               	movwf	read_prec_or_width@n
  2327     0471  0A84               	incf	4,f
  2328     0472  0800               	movf	0,w
  2329     0473  00FB               	movwf	read_prec_or_width@n+1
  2330                           
  2331                           ;C:\Program Files\Microchip\xc8\v3.10\pic\sources\c99\common\doprnt.c: 1163:     } else 
      +                          {
  2332     0474  2CA0               	goto	l1161
  2333     0475                     l1155:
  2334                           
  2335                           ;C:\Program Files\Microchip\xc8\v3.10\pic\sources\c99\common\doprnt.c: 1166:            
      +                           n = n * 10 + c;
  2336     0475  087B               	movf	read_prec_or_width@n+1,w
  2337     0476  00F1               	movwf	___wmul@multiplier+1
  2338     0477  087A               	movf	read_prec_or_width@n,w
  2339     0478  00F0               	movwf	___wmul@multiplier
  2340     0479  300A               	movlw	10
  2341     047A  00F2               	movwf	___wmul@multiplicand
  2342     047B  3000               	movlw	0
  2343     047C  00F3               	movwf	___wmul@multiplicand+1
  2344     047D  120A  118A  2311  120A  118A  	fcall	___wmul
  2345     0482  0879               	movf	read_prec_or_width@c,w
  2346     0483  0770               	addwf	?___wmul,w
  2347     0484  00FA               	movwf	read_prec_or_width@n
  2348     0485  3000               	movlw	0
  2349     0486  1803               	skipnc
  2350     0487  3001               	movlw	1
  2351     0488  0771               	addwf	?___wmul+1,w
  2352     0489  00FB               	movwf	read_prec_or_width@n+1
  2353     048A                     l1157:
  2354                           
  2355                           ;C:\Program Files\Microchip\xc8\v3.10\pic\sources\c99\common\doprnt.c: 1167:            
      +                           ++*fmt;
  2356     048A  0876               	movf	read_prec_or_width@fmt,w
  2357     048B  0084               	movwf	4
  2358     048C  3001               	movlw	1
  2359     048D  1383               	bcf	3,7	;select IRP bank0
  2360     048E  0780               	addwf	0,f
  2361     048F                     l1159:
  2362                           
  2363                           ;C:\Program Files\Microchip\xc8\v3.10\pic\sources\c99\common\doprnt.c: 1165:         whi
      +                          le ((c = ((unsigned)(*fmt)[0]) - '0') < 10) {
  2364     048F  0876               	movf	read_prec_or_width@fmt,w
  2365     0490  0084               	movwf	4
  2366     0491  0800               	movf	0,w
  2367     0492  0084               	movwf	4
  2368     0493  120A  118A  2003  120A  118A  	fcall	stringdir
  2369     0498  3ED0               	addlw	208
  2370     0499  00F9               	movwf	read_prec_or_width@c
  2371     049A  300A               	movlw	10
  2372     049B  0279               	subwf	read_prec_or_width@c,w
  2373     049C  1C03               	skipc
  2374     049D  2C9F               	goto	u861
  2375     049E  2CA0               	goto	u860
  2376     049F                     u861:
  2377     049F  2C75               	goto	l1155
  2378     04A0                     u860:
  2379     04A0                     l1161:
  2380                           
  2381                           ;C:\Program Files\Microchip\xc8\v3.10\pic\sources\c99\common\doprnt.c: 1170:     return 
      +                          n;
  2382     04A0  087B               	movf	read_prec_or_width@n+1,w
  2383     04A1  00F7               	movwf	?_read_prec_or_width+1
  2384     04A2  087A               	movf	read_prec_or_width@n,w
  2385     04A3  00F6               	movwf	?_read_prec_or_width
  2386     04A4                     l645:
  2387     04A4  0008               	return
  2388     04A5                     __end_of_read_prec_or_width:
  2389                           
  2390                           	psect	text12
  2391     0311                     __ptext12:	
  2392 ;; *************** function ___wmul *****************
  2393 ;; Defined at:
  2394 ;;		line 15 in file "C:\Program Files\Microchip\xc8\v3.10\pic\sources\c99\common\Umul16.c"
  2395 ;; Parameters:    Size  Location     Type
  2396 ;;  multiplier      2    0[COMMON] unsigned int 
  2397 ;;  multiplicand    2    2[COMMON] unsigned int 
  2398 ;; Auto vars:     Size  Location     Type
  2399 ;;  product         2    4[COMMON] unsigned int 
  2400 ;; Return value:  Size  Location     Type
  2401 ;;                  2    0[COMMON] unsigned int 
  2402 ;; Registers used:
  2403 ;;		wreg, status,2, status,0
  2404 ;; Tracked objects:
  2405 ;;		On entry : 0/0
  2406 ;;		On exit  : 0/0
  2407 ;;		Unchanged: 0/0
  2408 ;; Data sizes:     COMMON   BANK0   BANK1   BANK3   BANK2
  2409 ;;      Params:         4       0       0       0       0
  2410 ;;      Locals:         2       0       0       0       0
  2411 ;;      Temps:          0       0       0       0       0
  2412 ;;      Totals:         6       0       0       0       0
  2413 ;;Total ram usage:        6 bytes
  2414 ;; Hardware stack levels used: 1
  2415 ;; This function calls:
  2416 ;;		Nothing
  2417 ;; This function is called by:
  2418 ;;		_read_prec_or_width
  2419 ;; This function uses a non-reentrant model
  2420 ;;
  2421                           
  2422     0311                     ___wmul:	
  2423                           ;psect for function ___wmul
  2424                           
  2425     0311                     l1045:	
  2426                           ;incstack = 0
  2427                           ; Regs used in ___wmul: [wreg+status,2+status,0]
  2428                           
  2429     0311  01F4               	clrf	___wmul@product
  2430     0312  01F5               	clrf	___wmul@product+1
  2431     0313                     l1047:
  2432     0313  1C70               	btfss	___wmul@multiplier,0
  2433     0314  2B16               	goto	u611
  2434     0315  2B17               	goto	u610
  2435     0316                     u611:
  2436     0316  2B1D               	goto	l143
  2437     0317                     u610:
  2438     0317                     l1049:
  2439     0317  0872               	movf	___wmul@multiplicand,w
  2440     0318  07F4               	addwf	___wmul@product,f
  2441     0319  1803               	skipnc
  2442     031A  0AF5               	incf	___wmul@product+1,f
  2443     031B  0873               	movf	___wmul@multiplicand+1,w
  2444     031C  07F5               	addwf	___wmul@product+1,f
  2445     031D                     l143:
  2446     031D  3001               	movlw	1
  2447     031E                     u625:
  2448     031E  1003               	clrc
  2449     031F  0DF2               	rlf	___wmul@multiplicand,f
  2450     0320  0DF3               	rlf	___wmul@multiplicand+1,f
  2451     0321  3EFF               	addlw	-1
  2452     0322  1D03               	skipz
  2453     0323  2B1E               	goto	u625
  2454     0324                     l1051:
  2455     0324  3001               	movlw	1
  2456     0325                     u635:
  2457     0325  1003               	clrc
  2458     0326  0CF1               	rrf	___wmul@multiplier+1,f
  2459     0327  0CF0               	rrf	___wmul@multiplier,f
  2460     0328  3EFF               	addlw	-1
  2461     0329  1D03               	skipz
  2462     032A  2B25               	goto	u635
  2463     032B                     l1053:
  2464     032B  0870               	movf	___wmul@multiplier,w
  2465     032C  0471               	iorwf	___wmul@multiplier+1,w
  2466     032D  1D03               	btfss	3,2
  2467     032E  2B30               	goto	u641
  2468     032F  2B31               	goto	u640
  2469     0330                     u641:
  2470     0330  2B13               	goto	l1047
  2471     0331                     u640:
  2472     0331                     l1055:
  2473     0331  0875               	movf	___wmul@product+1,w
  2474     0332  00F1               	movwf	?___wmul+1
  2475     0333  0874               	movf	___wmul@product,w
  2476     0334  00F0               	movwf	?___wmul
  2477     0335                     l145:
  2478     0335  0008               	return
  2479     0336                     __end_of___wmul:
  2480                           
  2481                           	psect	text13
  2482     0361                     __ptext13:	
  2483 ;; *************** function _lcd_init *****************
  2484 ;; Defined at:
  2485 ;;		line 52 in file "adc.c"
  2486 ;; Parameters:    Size  Location     Type
  2487 ;;		None
  2488 ;; Auto vars:     Size  Location     Type
  2489 ;;		None
  2490 ;; Return value:  Size  Location     Type
  2491 ;;                  1    wreg      void 
  2492 ;; Registers used:
  2493 ;;		wreg, status,2, status,0, pclath, cstack
  2494 ;; Tracked objects:
  2495 ;;		On entry : 0/0
  2496 ;;		On exit  : 0/0
  2497 ;;		Unchanged: 0/0
  2498 ;; Data sizes:     COMMON   BANK0   BANK1   BANK3   BANK2
  2499 ;;      Params:         0       0       0       0       0
  2500 ;;      Locals:         0       0       0       0       0
  2501 ;;      Temps:          2       0       0       0       0
  2502 ;;      Totals:         2       0       0       0       0
  2503 ;;Total ram usage:        2 bytes
  2504 ;; Hardware stack levels used: 1
  2505 ;; Hardware stack levels required when called: 1
  2506 ;; This function calls:
  2507 ;;		_lcdCommand
  2508 ;; This function is called by:
  2509 ;;		_main
  2510 ;; This function uses a non-reentrant model
  2511 ;;
  2512                           
  2513     0361                     _lcd_init:	
  2514                           ;psect for function _lcd_init
  2515                           
  2516     0361                     l1231:	
  2517                           ;incstack = 0
  2518                           ; Regs used in _lcd_init: [wreg+status,2+status,0+pclath+cstack]
  2519                           
  2520                           
  2521                           ;adc.c: 53:     _delay((unsigned long)((20)*(20000000/4000.0)));
  2522     0361  3082               	movlw	130
  2523     0362  00F4               	movwf	??_lcd_init+1
  2524     0363  30DD               	movlw	221
  2525     0364  00F3               	movwf	??_lcd_init
  2526     0365                     u1107:
  2527     0365  0BF3               	decfsz	??_lcd_init,f
  2528     0366  2B65               	goto	u1107
  2529     0367  0BF4               	decfsz	??_lcd_init+1,f
  2530     0368  2B65               	goto	u1107
  2531     0369  2B6A               	nop2
  2532     036A                     l1233:
  2533                           
  2534                           ;adc.c: 54:     lcdCommand(0x38);
  2535     036A  3038               	movlw	56
  2536     036B  120A  118A  22B0  120A  118A  	fcall	_lcdCommand
  2537     0370                     l1235:
  2538                           
  2539                           ;adc.c: 55:     lcdCommand(0x06);
  2540     0370  3006               	movlw	6
  2541     0371  120A  118A  22B0  120A  118A  	fcall	_lcdCommand
  2542     0376                     l1237:
  2543                           
  2544                           ;adc.c: 56:     lcdCommand(0x0C);
  2545     0376  300C               	movlw	12
  2546     0377  120A  118A  22B0  120A  118A  	fcall	_lcdCommand
  2547     037C                     l1239:
  2548                           
  2549                           ;adc.c: 57:     lcdCommand(0x01);
  2550     037C  3001               	movlw	1
  2551     037D  120A  118A  22B0  120A  118A  	fcall	_lcdCommand
  2552                           
  2553                           ;adc.c: 58:     _delay((unsigned long)((2)*(20000000/4000.0)));
  2554     0382  300D               	movlw	13
  2555     0383  00F4               	movwf	??_lcd_init+1
  2556     0384  30FB               	movlw	251
  2557     0385  00F3               	movwf	??_lcd_init
  2558     0386                     u1117:
  2559     0386  0BF3               	decfsz	??_lcd_init,f
  2560     0387  2B86               	goto	u1117
  2561     0388  0BF4               	decfsz	??_lcd_init+1,f
  2562     0389  2B86               	goto	u1117
  2563     038A  2B8B               	nop2
  2564     038B                     l1241:
  2565                           
  2566                           ;adc.c: 59:     lcdCommand(0x80);
  2567     038B  3080               	movlw	128
  2568     038C  120A  118A  22B0  120A  118A  	fcall	_lcdCommand
  2569     0391                     l33:
  2570     0391  0008               	return
  2571     0392                     __end_of_lcd_init:
  2572                           
  2573                           	psect	text14
  2574     02B0                     __ptext14:	
  2575 ;; *************** function _lcdCommand *****************
  2576 ;; Defined at:
  2577 ;;		line 34 in file "adc.c"
  2578 ;; Parameters:    Size  Location     Type
  2579 ;;  cmd             1    wreg     unsigned char 
  2580 ;; Auto vars:     Size  Location     Type
  2581 ;;  cmd             1    2[COMMON] unsigned char 
  2582 ;; Return value:  Size  Location     Type
  2583 ;;                  1    wreg      void 
  2584 ;; Registers used:
  2585 ;;		wreg
  2586 ;; Tracked objects:
  2587 ;;		On entry : 0/0
  2588 ;;		On exit  : 0/0
  2589 ;;		Unchanged: 0/0
  2590 ;; Data sizes:     COMMON   BANK0   BANK1   BANK3   BANK2
  2591 ;;      Params:         0       0       0       0       0
  2592 ;;      Locals:         1       0       0       0       0
  2593 ;;      Temps:          2       0       0       0       0
  2594 ;;      Totals:         3       0       0       0       0
  2595 ;;Total ram usage:        3 bytes
  2596 ;; Hardware stack levels used: 1
  2597 ;; This function calls:
  2598 ;;		Nothing
  2599 ;; This function is called by:
  2600 ;;		_lcd_init
  2601 ;;		_main
  2602 ;; This function uses a non-reentrant model
  2603 ;;
  2604                           
  2605     02B0                     _lcdCommand:	
  2606                           ;psect for function _lcdCommand
  2607                           
  2608                           
  2609                           ;incstack = 0
  2610                           ; Regs used in _lcdCommand: [wreg]
  2611                           ;lcdCommand@cmd stored from wreg
  2612     02B0  00F2               	movwf	lcdCommand@cmd
  2613     02B1                     l1205:
  2614                           
  2615                           ;adc.c: 35:     PORTBbits.RB6 = 0;
  2616     02B1  1283               	bcf	3,5	;RP0=0, select bank0
  2617     02B2  1303               	bcf	3,6	;RP1=0, select bank0
  2618     02B3  1306               	bcf	6,6	;volatile
  2619     02B4                     l1207:
  2620                           
  2621                           ;adc.c: 36:     PORTD = cmd;
  2622     02B4  0872               	movf	lcdCommand@cmd,w
  2623     02B5  0088               	movwf	8	;volatile
  2624     02B6                     l1209:
  2625                           
  2626                           ;adc.c: 37:     PORTBbits.RB7 = 1;
  2627     02B6  1786               	bsf	6,7	;volatile
  2628                           
  2629                           ;adc.c: 38:     _delay((unsigned long)((1)*(20000000/4000.0)));
  2630     02B7  3007               	movlw	7
  2631     02B8  00F1               	movwf	??_lcdCommand+1
  2632     02B9  307D               	movlw	125
  2633     02BA  00F0               	movwf	??_lcdCommand
  2634     02BB                     u1127:
  2635     02BB  0BF0               	decfsz	??_lcdCommand,f
  2636     02BC  2ABB               	goto	u1127
  2637     02BD  0BF1               	decfsz	??_lcdCommand+1,f
  2638     02BE  2ABB               	goto	u1127
  2639     02BF                     l1211:
  2640                           
  2641                           ;adc.c: 39:     PORTBbits.RB7 = 0;
  2642     02BF  1283               	bcf	3,5	;RP0=0, select bank0
  2643     02C0  1303               	bcf	3,6	;RP1=0, select bank0
  2644     02C1  1386               	bcf	6,7	;volatile
  2645                           
  2646                           ;adc.c: 40:     _delay((unsigned long)((1)*(20000000/4000.0)));
  2647     02C2  3007               	movlw	7
  2648     02C3  00F1               	movwf	??_lcdCommand+1
  2649     02C4  307D               	movlw	125
  2650     02C5  00F0               	movwf	??_lcdCommand
  2651     02C6                     u1137:
  2652     02C6  0BF0               	decfsz	??_lcdCommand,f
  2653     02C7  2AC6               	goto	u1137
  2654     02C8  0BF1               	decfsz	??_lcdCommand+1,f
  2655     02C9  2AC6               	goto	u1137
  2656     02CA                     l27:
  2657     02CA  0008               	return
  2658     02CB                     __end_of_lcdCommand:
  2659                           
  2660                           	psect	text15
  2661     0281                     __ptext15:	
  2662 ;; *************** function _lcdSendString *****************
  2663 ;; Defined at:
  2664 ;;		line 62 in file "adc.c"
  2665 ;; Parameters:    Size  Location     Type
  2666 ;;  addr            1    3[COMMON] PTR unsigned char 
  2667 ;;		 -> main@buffer(16), 
  2668 ;; Auto vars:     Size  Location     Type
  2669 ;;		None
  2670 ;; Return value:  Size  Location     Type
  2671 ;;                  1    wreg      void 
  2672 ;; Registers used:
  2673 ;;		wreg, fsr0l, fsr0h, status,2, status,0, pclath, cstack
  2674 ;; Tracked objects:
  2675 ;;		On entry : 0/0
  2676 ;;		On exit  : 0/0
  2677 ;;		Unchanged: 0/0
  2678 ;; Data sizes:     COMMON   BANK0   BANK1   BANK3   BANK2
  2679 ;;      Params:         1       0       0       0       0
  2680 ;;      Locals:         0       0       0       0       0
  2681 ;;      Temps:          0       0       0       0       0
  2682 ;;      Totals:         1       0       0       0       0
  2683 ;;Total ram usage:        1 bytes
  2684 ;; Hardware stack levels used: 1
  2685 ;; Hardware stack levels required when called: 1
  2686 ;; This function calls:
  2687 ;;		_lcdSendDataByte
  2688 ;; This function is called by:
  2689 ;;		_main
  2690 ;; This function uses a non-reentrant model
  2691 ;;
  2692                           
  2693     0281                     _lcdSendString:	
  2694                           ;psect for function _lcdSendString
  2695                           
  2696     0281                     l1243:	
  2697                           ;incstack = 0
  2698                           ; Regs used in _lcdSendString: [wreg-fsr0h+status,2+status,0+pclath+cstack]
  2699                           
  2700                           
  2701                           ;adc.c: 63:     while(*addr){
  2702     0281  2A8C               	goto	l1249
  2703     0282                     l1245:
  2704                           
  2705                           ;adc.c: 64:         lcdSendDataByte(*addr);
  2706     0282  0873               	movf	lcdSendString@addr,w
  2707     0283  0084               	movwf	4
  2708     0284  0800               	movf	0,w
  2709     0285  120A  118A  2295  120A  118A  	fcall	_lcdSendDataByte
  2710     028A                     l1247:
  2711                           
  2712                           ;adc.c: 65:         addr++;
  2713     028A  3001               	movlw	1
  2714     028B  07F3               	addwf	lcdSendString@addr,f
  2715     028C                     l1249:
  2716                           
  2717                           ;adc.c: 63:     while(*addr){
  2718     028C  0873               	movf	lcdSendString@addr,w
  2719     028D  0084               	movwf	4
  2720     028E  1383               	bcf	3,7	;select IRP bank0
  2721     028F  0800               	movf	0,w
  2722     0290  1D03               	btfss	3,2
  2723     0291  2A93               	goto	u911
  2724     0292  2A94               	goto	u910
  2725     0293                     u911:
  2726     0293  2A82               	goto	l1245
  2727     0294                     u910:
  2728     0294                     l39:
  2729     0294  0008               	return
  2730     0295                     __end_of_lcdSendString:
  2731                           
  2732                           	psect	text16
  2733     0295                     __ptext16:	
  2734 ;; *************** function _lcdSendDataByte *****************
  2735 ;; Defined at:
  2736 ;;		line 43 in file "adc.c"
  2737 ;; Parameters:    Size  Location     Type
  2738 ;;  data            1    wreg     unsigned char 
  2739 ;; Auto vars:     Size  Location     Type
  2740 ;;  data            1    2[COMMON] unsigned char 
  2741 ;; Return value:  Size  Location     Type
  2742 ;;                  1    wreg      void 
  2743 ;; Registers used:
  2744 ;;		wreg
  2745 ;; Tracked objects:
  2746 ;;		On entry : 0/0
  2747 ;;		On exit  : 0/0
  2748 ;;		Unchanged: 0/0
  2749 ;; Data sizes:     COMMON   BANK0   BANK1   BANK3   BANK2
  2750 ;;      Params:         0       0       0       0       0
  2751 ;;      Locals:         1       0       0       0       0
  2752 ;;      Temps:          2       0       0       0       0
  2753 ;;      Totals:         3       0       0       0       0
  2754 ;;Total ram usage:        3 bytes
  2755 ;; Hardware stack levels used: 1
  2756 ;; This function calls:
  2757 ;;		Nothing
  2758 ;; This function is called by:
  2759 ;;		_lcdSendString
  2760 ;; This function uses a non-reentrant model
  2761 ;;
  2762                           
  2763     0295                     _lcdSendDataByte:	
  2764                           ;psect for function _lcdSendDataByte
  2765                           
  2766                           
  2767                           ;incstack = 0
  2768                           ; Regs used in _lcdSendDataByte: [wreg]
  2769                           ;lcdSendDataByte@data stored from wreg
  2770     0295  00F2               	movwf	lcdSendDataByte@data
  2771     0296                     l1213:
  2772                           
  2773                           ;adc.c: 44:     PORTBbits.RB6 = 1;
  2774     0296  1283               	bcf	3,5	;RP0=0, select bank0
  2775     0297  1303               	bcf	3,6	;RP1=0, select bank0
  2776     0298  1706               	bsf	6,6	;volatile
  2777     0299                     l1215:
  2778                           
  2779                           ;adc.c: 45:     PORTD = data;
  2780     0299  0872               	movf	lcdSendDataByte@data,w
  2781     029A  0088               	movwf	8	;volatile
  2782     029B                     l1217:
  2783                           
  2784                           ;adc.c: 46:     PORTBbits.RB7 = 1;
  2785     029B  1786               	bsf	6,7	;volatile
  2786                           
  2787                           ;adc.c: 47:     _delay((unsigned long)((1)*(20000000/4000.0)));
  2788     029C  3007               	movlw	7
  2789     029D  00F1               	movwf	??_lcdSendDataByte+1
  2790     029E  307D               	movlw	125
  2791     029F  00F0               	movwf	??_lcdSendDataByte
  2792     02A0                     u1147:
  2793     02A0  0BF0               	decfsz	??_lcdSendDataByte,f
  2794     02A1  2AA0               	goto	u1147
  2795     02A2  0BF1               	decfsz	??_lcdSendDataByte+1,f
  2796     02A3  2AA0               	goto	u1147
  2797     02A4                     l1219:
  2798                           
  2799                           ;adc.c: 48:     PORTBbits.RB7 = 0;
  2800     02A4  1283               	bcf	3,5	;RP0=0, select bank0
  2801     02A5  1303               	bcf	3,6	;RP1=0, select bank0
  2802     02A6  1386               	bcf	6,7	;volatile
  2803                           
  2804                           ;adc.c: 49:     _delay((unsigned long)((1)*(20000000/4000.0)));
  2805     02A7  3007               	movlw	7
  2806     02A8  00F1               	movwf	??_lcdSendDataByte+1
  2807     02A9  307D               	movlw	125
  2808     02AA  00F0               	movwf	??_lcdSendDataByte
  2809     02AB                     u1157:
  2810     02AB  0BF0               	decfsz	??_lcdSendDataByte,f
  2811     02AC  2AAB               	goto	u1157
  2812     02AD  0BF1               	decfsz	??_lcdSendDataByte+1,f
  2813     02AE  2AAB               	goto	u1157
  2814     02AF                     l30:
  2815     02AF  0008               	return
  2816     02B0                     __end_of_lcdSendDataByte:
  2817                           
  2818                           	psect	text17
  2819     026F                     __ptext17:	
  2820 ;; *************** function _adc_read_an0 *****************
  2821 ;; Defined at:
  2822 ;;		line 75 in file "adc.c"
  2823 ;; Parameters:    Size  Location     Type
  2824 ;;		None
  2825 ;; Auto vars:     Size  Location     Type
  2826 ;;		None
  2827 ;; Return value:  Size  Location     Type
  2828 ;;                  2    0[COMMON] unsigned int 
  2829 ;; Registers used:
  2830 ;;		wreg
  2831 ;; Tracked objects:
  2832 ;;		On entry : 0/0
  2833 ;;		On exit  : 0/0
  2834 ;;		Unchanged: 0/0
  2835 ;; Data sizes:     COMMON   BANK0   BANK1   BANK3   BANK2
  2836 ;;      Params:         2       0       0       0       0
  2837 ;;      Locals:         0       0       0       0       0
  2838 ;;      Temps:          1       0       0       0       0
  2839 ;;      Totals:         3       0       0       0       0
  2840 ;;Total ram usage:        3 bytes
  2841 ;; Hardware stack levels used: 1
  2842 ;; This function calls:
  2843 ;;		Nothing
  2844 ;; This function is called by:
  2845 ;;		_main
  2846 ;; This function uses a non-reentrant model
  2847 ;;
  2848                           
  2849     026F                     _adc_read_an0:	
  2850                           ;psect for function _adc_read_an0
  2851                           
  2852     026F                     l1255:	
  2853                           ;incstack = 0
  2854                           ; Regs used in _adc_read_an0: [wreg]
  2855                           
  2856                           
  2857                           ;adc.c: 76:     _delay((unsigned long)((20)*(20000000/4000000.0)));
  2858     026F  3021               	movlw	33
  2859     0270  00F2               	movwf	??_adc_read_an0
  2860     0271                     u1167:
  2861     0271  0BF2               	decfsz	??_adc_read_an0,f
  2862     0272  2A71               	goto	u1167
  2863     0273                     l1257:
  2864                           
  2865                           ;adc.c: 77:     GO_nDONE = 1;
  2866     0273  1283               	bcf	3,5	;RP0=0, select bank0
  2867     0274  1303               	bcf	3,6	;RP1=0, select bank0
  2868     0275  151F               	bsf	31,2	;volatile
  2869     0276                     l45:	
  2870                           ;adc.c: 78:     while(GO_nDONE);
  2871                           
  2872     0276  191F               	btfsc	31,2	;volatile
  2873     0277  2A79               	goto	u921
  2874     0278  2A7A               	goto	u920
  2875     0279                     u921:
  2876     0279  2A76               	goto	l45
  2877     027A                     u920:
  2878     027A                     l1259:
  2879                           
  2880                           ;adc.c: 79:     return((unsigned int)ADRESH << 8 | ADRESL);
  2881     027A  081E               	movf	30,w	;volatile
  2882     027B  00F1               	movwf	?_adc_read_an0+1
  2883     027C  1683               	bsf	3,5	;RP0=1, select bank1
  2884     027D  1303               	bcf	3,6	;RP1=0, select bank1
  2885     027E  081E               	movf	30,w	;volatile
  2886     027F  00F0               	movwf	?_adc_read_an0
  2887     0280                     l48:
  2888     0280  0008               	return
  2889     0281                     __end_of_adc_read_an0:
  2890                           
  2891                           	psect	text18
  2892     0260                     __ptext18:	
  2893 ;; *************** function _adc_init *****************
  2894 ;; Defined at:
  2895 ;;		line 68 in file "adc.c"
  2896 ;; Parameters:    Size  Location     Type
  2897 ;;		None
  2898 ;; Auto vars:     Size  Location     Type
  2899 ;;		None
  2900 ;; Return value:  Size  Location     Type
  2901 ;;                  1    wreg      void 
  2902 ;; Registers used:
  2903 ;;		wreg
  2904 ;; Tracked objects:
  2905 ;;		On entry : 0/0
  2906 ;;		On exit  : 0/0
  2907 ;;		Unchanged: 0/0
  2908 ;; Data sizes:     COMMON   BANK0   BANK1   BANK3   BANK2
  2909 ;;      Params:         0       0       0       0       0
  2910 ;;      Locals:         0       0       0       0       0
  2911 ;;      Temps:          1       0       0       0       0
  2912 ;;      Totals:         1       0       0       0       0
  2913 ;;Total ram usage:        1 bytes
  2914 ;; Hardware stack levels used: 1
  2915 ;; This function calls:
  2916 ;;		Nothing
  2917 ;; This function is called by:
  2918 ;;		_main
  2919 ;; This function uses a non-reentrant model
  2920 ;;
  2921                           
  2922     0260                     _adc_init:	
  2923                           ;psect for function _adc_init
  2924                           
  2925     0260                     l1251:	
  2926                           ;incstack = 0
  2927                           ; Regs used in _adc_init: [wreg]
  2928                           
  2929                           
  2930                           ;adc.c: 69:     TRISA = 0x01;
  2931     0260  3001               	movlw	1
  2932     0261  1683               	bsf	3,5	;RP0=1, select bank1
  2933     0262  1303               	bcf	3,6	;RP1=0, select bank1
  2934     0263  0085               	movwf	5	;volatile
  2935                           
  2936                           ;adc.c: 70:     ADCON1 = 0b11001110;
  2937     0264  30CE               	movlw	206
  2938     0265  009F               	movwf	31	;volatile
  2939                           
  2940                           ;adc.c: 71:     ADCON0 = 0b10000001;
  2941     0266  3081               	movlw	129
  2942     0267  1283               	bcf	3,5	;RP0=0, select bank0
  2943     0268  1303               	bcf	3,6	;RP1=0, select bank0
  2944     0269  009F               	movwf	31	;volatile
  2945     026A                     l1253:
  2946                           
  2947                           ;adc.c: 72:      _delay((unsigned long)((20)*(20000000/4000000.0)));
  2948     026A  3021               	movlw	33
  2949     026B  00F0               	movwf	??_adc_init
  2950     026C                     u1177:
  2951     026C  0BF0               	decfsz	??_adc_init,f
  2952     026D  2A6C               	goto	u1177
  2953     026E                     l42:
  2954     026E  0008               	return
  2955     026F                     __end_of_adc_init:
  2956                           
  2957                           	psect	text19
  2958     040C                     __ptext19:	
  2959 ;; *************** function ___lmul *****************
  2960 ;; Defined at:
  2961 ;;		line 15 in file "C:\Program Files\Microchip\xc8\v3.10\pic\sources\c99\common\Umul32.c"
  2962 ;; Parameters:    Size  Location     Type
  2963 ;;  multiplier      4    0[COMMON] unsigned long 
  2964 ;;  multiplicand    4    4[COMMON] unsigned long 
  2965 ;; Auto vars:     Size  Location     Type
  2966 ;;  product         4    9[COMMON] unsigned long 
  2967 ;; Return value:  Size  Location     Type
  2968 ;;                  4    0[COMMON] unsigned long 
  2969 ;; Registers used:
  2970 ;;		wreg, status,2, status,0
  2971 ;; Tracked objects:
  2972 ;;		On entry : 0/0
  2973 ;;		On exit  : 0/0
  2974 ;;		Unchanged: 0/0
  2975 ;; Data sizes:     COMMON   BANK0   BANK1   BANK3   BANK2
  2976 ;;      Params:         8       0       0       0       0
  2977 ;;      Locals:         4       0       0       0       0
  2978 ;;      Temps:          1       0       0       0       0
  2979 ;;      Totals:        13       0       0       0       0
  2980 ;;Total ram usage:       13 bytes
  2981 ;; Hardware stack levels used: 1
  2982 ;; This function calls:
  2983 ;;		Nothing
  2984 ;; This function is called by:
  2985 ;;		_main
  2986 ;; This function uses a non-reentrant model
  2987 ;;
  2988                           
  2989     040C                     ___lmul:	
  2990                           ;psect for function ___lmul
  2991                           
  2992     040C                     l1277:	
  2993                           ;incstack = 0
  2994                           ; Regs used in ___lmul: [wreg+status,2+status,0]
  2995                           
  2996     040C  3000               	movlw	0
  2997     040D  00FC               	movwf	___lmul@product+3
  2998     040E  3000               	movlw	0
  2999     040F  00FB               	movwf	___lmul@product+2
  3000     0410  3000               	movlw	0
  3001     0411  00FA               	movwf	___lmul@product+1
  3002     0412  3000               	movlw	0
  3003     0413  00F9               	movwf	___lmul@product
  3004     0414                     l1279:
  3005     0414  1C70               	btfss	___lmul@multiplier,0
  3006     0415  2C17               	goto	u931
  3007     0416  2C18               	goto	u930
  3008     0417                     u931:
  3009     0417  2C2F               	goto	l1283
  3010     0418                     u930:
  3011     0418                     l1281:
  3012     0418  0874               	movf	___lmul@multiplicand,w
  3013     0419  07F9               	addwf	___lmul@product,f
  3014     041A  0875               	movf	___lmul@multiplicand+1,w
  3015     041B  1103               	clrz
  3016     041C  1803               	skipnc
  3017     041D  3E01               	addlw	1
  3018     041E  1903               	skipnz
  3019     041F  2C21               	goto	u941
  3020     0420  07FA               	addwf	___lmul@product+1,f
  3021     0421                     u941:
  3022     0421  0876               	movf	___lmul@multiplicand+2,w
  3023     0422  1103               	clrz
  3024     0423  1803               	skipnc
  3025     0424  3E01               	addlw	1
  3026     0425  1903               	skipnz
  3027     0426  2C28               	goto	u942
  3028     0427  07FB               	addwf	___lmul@product+2,f
  3029     0428                     u942:
  3030     0428  0877               	movf	___lmul@multiplicand+3,w
  3031     0429  1103               	clrz
  3032     042A  1803               	skipnc
  3033     042B  3E01               	addlw	1
  3034     042C  1903               	skipnz
  3035     042D  2C2F               	goto	u943
  3036     042E  07FC               	addwf	___lmul@product+3,f
  3037     042F                     u943:
  3038     042F                     l1283:
  3039     042F  3001               	movlw	1
  3040     0430  00F8               	movwf	??___lmul
  3041     0431                     u955:
  3042     0431  1003               	clrc
  3043     0432  0DF4               	rlf	___lmul@multiplicand,f
  3044     0433  0DF5               	rlf	___lmul@multiplicand+1,f
  3045     0434  0DF6               	rlf	___lmul@multiplicand+2,f
  3046     0435  0DF7               	rlf	___lmul@multiplicand+3,f
  3047     0436  0BF8               	decfsz	??___lmul,f
  3048     0437  2C31               	goto	u955
  3049     0438                     l1285:
  3050     0438  3001               	movlw	1
  3051     0439                     u965:
  3052     0439  1003               	clrc
  3053     043A  0CF3               	rrf	___lmul@multiplier+3,f
  3054     043B  0CF2               	rrf	___lmul@multiplier+2,f
  3055     043C  0CF1               	rrf	___lmul@multiplier+1,f
  3056     043D  0CF0               	rrf	___lmul@multiplier,f
  3057     043E  3EFF               	addlw	-1
  3058     043F  1D03               	skipz
  3059     0440  2C39               	goto	u965
  3060     0441  0873               	movf	___lmul@multiplier+3,w
  3061     0442  0472               	iorwf	___lmul@multiplier+2,w
  3062     0443  0471               	iorwf	___lmul@multiplier+1,w
  3063     0444  0470               	iorwf	___lmul@multiplier,w
  3064     0445  1D03               	skipz
  3065     0446  2C48               	goto	u971
  3066     0447  2C49               	goto	u970
  3067     0448                     u971:
  3068     0448  2C14               	goto	l1279
  3069     0449                     u970:
  3070     0449                     l1287:
  3071     0449  087C               	movf	___lmul@product+3,w
  3072     044A  00F3               	movwf	?___lmul+3
  3073     044B  087B               	movf	___lmul@product+2,w
  3074     044C  00F2               	movwf	?___lmul+2
  3075     044D  087A               	movf	___lmul@product+1,w
  3076     044E  00F1               	movwf	?___lmul+1
  3077     044F  0879               	movf	___lmul@product,w
  3078     0450  00F0               	movwf	?___lmul
  3079     0451                     l157:
  3080     0451  0008               	return
  3081     0452                     __end_of___lmul:
  3082                           
  3083                           	psect	text20
  3084     05F6                     __ptext20:	
  3085 ;; *************** function ___aldiv *****************
  3086 ;; Defined at:
  3087 ;;		line 5 in file "C:\Program Files\Microchip\xc8\v3.10\pic\sources\c99\common\aldiv.c"
  3088 ;; Parameters:    Size  Location     Type
  3089 ;;  divisor         4    0[BANK0 ] long 
  3090 ;;  dividend        4    4[BANK0 ] long 
  3091 ;; Auto vars:     Size  Location     Type
  3092 ;;  quotient        4   10[BANK0 ] long 
  3093 ;;  sign            1    9[BANK0 ] unsigned char 
  3094 ;;  counter         1    8[BANK0 ] unsigned char 
  3095 ;; Return value:  Size  Location     Type
  3096 ;;                  4    0[BANK0 ] long 
  3097 ;; Registers used:
  3098 ;;		wreg, status,2, status,0
  3099 ;; Tracked objects:
  3100 ;;		On entry : 0/0
  3101 ;;		On exit  : 0/0
  3102 ;;		Unchanged: 0/0
  3103 ;; Data sizes:     COMMON   BANK0   BANK1   BANK3   BANK2
  3104 ;;      Params:         0       8       0       0       0
  3105 ;;      Locals:         0       6       0       0       0
  3106 ;;      Temps:          1       0       0       0       0
  3107 ;;      Totals:         1      14       0       0       0
  3108 ;;Total ram usage:       15 bytes
  3109 ;; Hardware stack levels used: 1
  3110 ;; This function calls:
  3111 ;;		Nothing
  3112 ;; This function is called by:
  3113 ;;		_main
  3114 ;; This function uses a non-reentrant model
  3115 ;;
  3116                           
  3117     05F6                     ___aldiv:	
  3118                           ;psect for function ___aldiv
  3119                           
  3120     05F6                     l1291:	
  3121                           ;incstack = 0
  3122                           ; Regs used in ___aldiv: [wreg+status,2+status,0]
  3123                           
  3124     05F6  1283               	bcf	3,5	;RP0=0, select bank0
  3125     05F7  1303               	bcf	3,6	;RP1=0, select bank0
  3126     05F8  01A9               	clrf	___aldiv@sign
  3127     05F9                     l1293:
  3128     05F9  1FA3               	btfss	___aldiv@divisor+3,7
  3129     05FA  2DFC               	goto	u981
  3130     05FB  2DFD               	goto	u980
  3131     05FC                     u981:
  3132     05FC  2E0A               	goto	l208
  3133     05FD                     u980:
  3134     05FD                     l1295:
  3135     05FD  09A0               	comf	___aldiv@divisor,f
  3136     05FE  09A1               	comf	___aldiv@divisor+1,f
  3137     05FF  09A2               	comf	___aldiv@divisor+2,f
  3138     0600  09A3               	comf	___aldiv@divisor+3,f
  3139     0601  0AA0               	incf	___aldiv@divisor,f
  3140     0602  1903               	skipnz
  3141     0603  0AA1               	incf	___aldiv@divisor+1,f
  3142     0604  1903               	skipnz
  3143     0605  0AA2               	incf	___aldiv@divisor+2,f
  3144     0606  1903               	skipnz
  3145     0607  0AA3               	incf	___aldiv@divisor+3,f
  3146     0608  3001               	movlw	1
  3147     0609  00A9               	movwf	___aldiv@sign
  3148     060A                     l208:
  3149     060A  1FA7               	btfss	___aldiv@dividend+3,7
  3150     060B  2E0D               	goto	u991
  3151     060C  2E0E               	goto	u990
  3152     060D                     u991:
  3153     060D  2E1B               	goto	l1301
  3154     060E                     u990:
  3155     060E                     l1297:
  3156     060E  09A4               	comf	___aldiv@dividend,f
  3157     060F  09A5               	comf	___aldiv@dividend+1,f
  3158     0610  09A6               	comf	___aldiv@dividend+2,f
  3159     0611  09A7               	comf	___aldiv@dividend+3,f
  3160     0612  0AA4               	incf	___aldiv@dividend,f
  3161     0613  1903               	skipnz
  3162     0614  0AA5               	incf	___aldiv@dividend+1,f
  3163     0615  1903               	skipnz
  3164     0616  0AA6               	incf	___aldiv@dividend+2,f
  3165     0617  1903               	skipnz
  3166     0618  0AA7               	incf	___aldiv@dividend+3,f
  3167     0619                     l1299:
  3168     0619  3001               	movlw	1
  3169     061A  06A9               	xorwf	___aldiv@sign,f
  3170     061B                     l1301:
  3171     061B  3000               	movlw	0
  3172     061C  00AD               	movwf	___aldiv@quotient+3
  3173     061D  3000               	movlw	0
  3174     061E  00AC               	movwf	___aldiv@quotient+2
  3175     061F  3000               	movlw	0
  3176     0620  00AB               	movwf	___aldiv@quotient+1
  3177     0621  3000               	movlw	0
  3178     0622  00AA               	movwf	___aldiv@quotient
  3179     0623                     l1303:
  3180     0623  0823               	movf	___aldiv@divisor+3,w
  3181     0624  0422               	iorwf	___aldiv@divisor+2,w
  3182     0625  0421               	iorwf	___aldiv@divisor+1,w
  3183     0626  0420               	iorwf	___aldiv@divisor,w
  3184     0627  1903               	skipnz
  3185     0628  2E2A               	goto	u1001
  3186     0629  2E2B               	goto	u1000
  3187     062A                     u1001:
  3188     062A  2E76               	goto	l1323
  3189     062B                     u1000:
  3190     062B                     l1305:
  3191     062B  3001               	movlw	1
  3192     062C  00A8               	movwf	___aldiv@counter
  3193     062D  2E39               	goto	l1309
  3194     062E                     l1307:
  3195     062E  3001               	movlw	1
  3196     062F  00FD               	movwf	??___aldiv
  3197     0630                     u1015:
  3198     0630  1003               	clrc
  3199     0631  0DA0               	rlf	___aldiv@divisor,f
  3200     0632  0DA1               	rlf	___aldiv@divisor+1,f
  3201     0633  0DA2               	rlf	___aldiv@divisor+2,f
  3202     0634  0DA3               	rlf	___aldiv@divisor+3,f
  3203     0635  0BFD               	decfsz	??___aldiv,f
  3204     0636  2E30               	goto	u1015
  3205     0637  3001               	movlw	1
  3206     0638  07A8               	addwf	___aldiv@counter,f
  3207     0639                     l1309:
  3208     0639  1FA3               	btfss	___aldiv@divisor+3,7
  3209     063A  2E3C               	goto	u1021
  3210     063B  2E3D               	goto	u1020
  3211     063C                     u1021:
  3212     063C  2E2E               	goto	l1307
  3213     063D                     u1020:
  3214     063D                     l1311:
  3215     063D  3001               	movlw	1
  3216     063E  00FD               	movwf	??___aldiv
  3217     063F                     u1035:
  3218     063F  1003               	clrc
  3219     0640  0DAA               	rlf	___aldiv@quotient,f
  3220     0641  0DAB               	rlf	___aldiv@quotient+1,f
  3221     0642  0DAC               	rlf	___aldiv@quotient+2,f
  3222     0643  0DAD               	rlf	___aldiv@quotient+3,f
  3223     0644  0BFD               	decfsz	??___aldiv,f
  3224     0645  2E3F               	goto	u1035
  3225     0646                     l1313:
  3226     0646  0823               	movf	___aldiv@divisor+3,w
  3227     0647  0227               	subwf	___aldiv@dividend+3,w
  3228     0648  1D03               	skipz
  3229     0649  2E54               	goto	u1045
  3230     064A  0822               	movf	___aldiv@divisor+2,w
  3231     064B  0226               	subwf	___aldiv@dividend+2,w
  3232     064C  1D03               	skipz
  3233     064D  2E54               	goto	u1045
  3234     064E  0821               	movf	___aldiv@divisor+1,w
  3235     064F  0225               	subwf	___aldiv@dividend+1,w
  3236     0650  1D03               	skipz
  3237     0651  2E54               	goto	u1045
  3238     0652  0820               	movf	___aldiv@divisor,w
  3239     0653  0224               	subwf	___aldiv@dividend,w
  3240     0654                     u1045:
  3241     0654  1C03               	skipc
  3242     0655  2E57               	goto	u1041
  3243     0656  2E58               	goto	u1040
  3244     0657                     u1041:
  3245     0657  2E67               	goto	l1319
  3246     0658                     u1040:
  3247     0658                     l1315:
  3248     0658  0820               	movf	___aldiv@divisor,w
  3249     0659  02A4               	subwf	___aldiv@dividend,f
  3250     065A  0821               	movf	___aldiv@divisor+1,w
  3251     065B  1C03               	skipc
  3252     065C  0F21               	incfsz	___aldiv@divisor+1,w
  3253     065D  02A5               	subwf	___aldiv@dividend+1,f
  3254     065E  0822               	movf	___aldiv@divisor+2,w
  3255     065F  1C03               	skipc
  3256     0660  0F22               	incfsz	___aldiv@divisor+2,w
  3257     0661  02A6               	subwf	___aldiv@dividend+2,f
  3258     0662  0823               	movf	___aldiv@divisor+3,w
  3259     0663  1C03               	skipc
  3260     0664  0F23               	incfsz	___aldiv@divisor+3,w
  3261     0665  02A7               	subwf	___aldiv@dividend+3,f
  3262     0666                     l1317:
  3263     0666  142A               	bsf	___aldiv@quotient,0
  3264     0667                     l1319:
  3265     0667  3001               	movlw	1
  3266     0668                     u1055:
  3267     0668  1003               	clrc
  3268     0669  0CA3               	rrf	___aldiv@divisor+3,f
  3269     066A  0CA2               	rrf	___aldiv@divisor+2,f
  3270     066B  0CA1               	rrf	___aldiv@divisor+1,f
  3271     066C  0CA0               	rrf	___aldiv@divisor,f
  3272     066D  3EFF               	addlw	-1
  3273     066E  1D03               	skipz
  3274     066F  2E68               	goto	u1055
  3275     0670                     l1321:
  3276     0670  3001               	movlw	1
  3277     0671  02A8               	subwf	___aldiv@counter,f
  3278     0672  1D03               	btfss	3,2
  3279     0673  2E75               	goto	u1061
  3280     0674  2E76               	goto	u1060
  3281     0675                     u1061:
  3282     0675  2E3D               	goto	l1311
  3283     0676                     u1060:
  3284     0676                     l1323:
  3285     0676  0829               	movf	___aldiv@sign,w
  3286     0677  1903               	btfsc	3,2
  3287     0678  2E7A               	goto	u1071
  3288     0679  2E7B               	goto	u1070
  3289     067A                     u1071:
  3290     067A  2E86               	goto	l1327
  3291     067B                     u1070:
  3292     067B                     l1325:
  3293     067B  09AA               	comf	___aldiv@quotient,f
  3294     067C  09AB               	comf	___aldiv@quotient+1,f
  3295     067D  09AC               	comf	___aldiv@quotient+2,f
  3296     067E  09AD               	comf	___aldiv@quotient+3,f
  3297     067F  0AAA               	incf	___aldiv@quotient,f
  3298     0680  1903               	skipnz
  3299     0681  0AAB               	incf	___aldiv@quotient+1,f
  3300     0682  1903               	skipnz
  3301     0683  0AAC               	incf	___aldiv@quotient+2,f
  3302     0684  1903               	skipnz
  3303     0685  0AAD               	incf	___aldiv@quotient+3,f
  3304     0686                     l1327:
  3305     0686  082D               	movf	___aldiv@quotient+3,w
  3306     0687  00A3               	movwf	?___aldiv+3
  3307     0688  082C               	movf	___aldiv@quotient+2,w
  3308     0689  00A2               	movwf	?___aldiv+2
  3309     068A  082B               	movf	___aldiv@quotient+1,w
  3310     068B  00A1               	movwf	?___aldiv+1
  3311     068C  082A               	movf	___aldiv@quotient,w
  3312     068D  00A0               	movwf	?___aldiv
  3313     068E                     l218:
  3314     068E  0008               	return
  3315     068F                     __end_of___aldiv:
  3316     0002                     ___latbits      equ	2
  3317     007E                     btemp           set	126	;btemp
  3318     007E                     btemp0          set	126
  3319     007F                     btemp1          set	127
  3320     007E                     wtemp0          set	126
  3321     007F                     wtemp0a         set	127
  3322     007F                     ttemp0a         set	127
  3323     0080                     ltemp0a         set	128

Data Sizes:
    Strings     15
    Constant    0
    Data        0
    BSS         37
    Persistent  0
    Stack       0

Auto Spaces:
    Space          Size  Autos    Used
    COMMON           14     14      14
    BANK0            80     60      65
    BANK1            80     22      54
    BANK3            96      0       0
    BANK2            96      0       0

Pointer List with Targets:

    f$.$buffer	PTR unsigned char  size(2) Largest target is 16
		 -> main@buffer(BANK1[16]), 

    f$.$source	PTR const unsigned char  size(1) Largest target is 0

    fputc@fp	PTR struct _IO_FILE size(2) Largest target is 11
		 -> sprintf@f(BANK0[11]), 

    fputc@fp$.$buffer	PTR unsigned char  size(2) Largest target is 16
		 -> main@buffer(BANK1[16]), 

    fputc@fp$.$source	PTR const unsigned char  size(1) Largest target is 0

    fputs@fp	PTR struct _IO_FILE size(2) Largest target is 11
		 -> sprintf@f(BANK0[11]), 

    fputs@s	PTR const unsigned char  size(1) Largest target is 32
		 -> dbuf(BANK1[32]), 

    lcdSendString@addr	PTR unsigned char  size(1) Largest target is 16
		 -> main@buffer(BANK1[16]), 

    pad@buf	PTR unsigned char  size(1) Largest target is 32
		 -> dbuf(BANK1[32]), 

    pad@fp	PTR struct _IO_FILE size(2) Largest target is 11
		 -> sprintf@f(BANK0[11]), 

    read_prec_or_width@ap	PTR PTR void [1] size(1) Largest target is 1
		 -> sprintf@ap(BANK0[1]), 

    read_prec_or_width@fmt	PTR PTR const unsigned char  size(1) Largest target is 1
		 -> vfprintf@cfmt(BANK0[1]), 

    S539$buffer	PTR unsigned char  size(2) Largest target is 16
		 -> main@buffer(BANK1[16]), 

    S539$source	PTR const unsigned char  size(1) Largest target is 0

    sprintf@ap	PTR void [1] size(1) Largest target is 2
		 -> ?_sprintf(BANK0[2]), 

    sprintf@fmt	PTR const unsigned char  size(1) Largest target is 8
		 -> STR_1(CODE[8]), STR_2(CODE[7]), 

    sprintf@s	PTR unsigned char  size(1) Largest target is 16
		 -> main@buffer(BANK1[16]), 

    utoa@fp	PTR struct _IO_FILE size(2) Largest target is 11
		 -> sprintf@f(BANK0[11]), 

    vfpfcnvrt@ap	PTR PTR void  size(1) Largest target is 1
		 -> sprintf@ap(BANK0[1]), 

    vfpfcnvrt@cp	PTR unsigned char  size(1) Largest target is 8
		 -> STR_1(CODE[8]), STR_2(CODE[7]), 

    vfpfcnvrt@fmt	PTR PTR unsigned char  size(1) Largest target is 1
		 -> vfprintf@cfmt(BANK0[1]), 

    vfpfcnvrt@fp	PTR struct _IO_FILE size(2) Largest target is 11
		 -> sprintf@f(BANK0[11]), 

    vfprintf@ap	PTR PTR void  size(1) Largest target is 1
		 -> sprintf@ap(BANK0[1]), 

    vfprintf@cfmt	PTR unsigned char  size(1) Largest target is 8
		 -> STR_1(CODE[8]), STR_2(CODE[7]), 

    vfprintf@fmt	PTR const unsigned char  size(1) Largest target is 8
		 -> STR_1(CODE[8]), STR_2(CODE[7]), 

    vfprintf@fp	PTR struct _IO_FILE size(2) Largest target is 11
		 -> sprintf@f(BANK0[11]), 


Critical Paths under _main in COMMON

    _main->___aldiv
    _utoa->_pad
    _pad->_fputc
    _fputs->_fputc
    _read_prec_or_width->___wmul
    _lcd_init->_lcdCommand
    _lcdSendString->_lcdSendDataByte
    ___aldiv->___lmul

Critical Paths under _main in BANK0

    _main->_sprintf
    _sprintf->_vfprintf
    _vfprintf->_vfpfcnvrt
    _vfpfcnvrt->_utoa
    _utoa->_pad
    _pad->_fputs

Critical Paths under _main in BANK1

    None.

Critical Paths under _main in BANK3

    None.

Critical Paths under _main in BANK2

    None.

Call Graph Tables:

 ---------------------------------------------------------------------------------
 (Depth) Function   	        Calls       Base Space   Used Autos Params    Refs
 ---------------------------------------------------------------------------------
 (0) _main                                                25    25      0    3262
                                             57 BANK0      3     3      0
                                              0 BANK1     22    22      0
                            ___aldiv
                             ___lmul
                           _adc_init
                       _adc_read_an0
                         _lcdCommand
                      _lcdSendString
                           _lcd_init
                            _sprintf
 ---------------------------------------------------------------------------------
 (1) _sprintf                                             19    15      4    2502
                                             40 BANK0     17    13      4
                           _vfprintf
 ---------------------------------------------------------------------------------
 (2) _vfprintf                                             5     1      4    2297
                                             35 BANK0      5     1      4
                          _vfpfcnvrt
 ---------------------------------------------------------------------------------
 (3) _vfpfcnvrt                                           13     9      4    2166
                                             24 BANK0     11     7      4
                              _fputc
                 _read_prec_or_width
                               _utoa
 ---------------------------------------------------------------------------------
 (4) _utoa                                                 9     5      4    1301
                                             15 BANK0      9     5      4
                            ___lwdiv
                            ___lwmod
                                _pad
 ---------------------------------------------------------------------------------
 (5) _pad                                                  8     3      5     747
                                             13 COMMON     1     1      0
                                              8 BANK0      7     2      5
                              _fputc
                              _fputs
 ---------------------------------------------------------------------------------
 (6) _fputs                                                8     5      3     333
                                              0 BANK0      8     5      3
                              _fputc
 ---------------------------------------------------------------------------------
 (7) _fputc                                               13     9      4     232
                                              0 COMMON    13     9      4
                              _putch
 ---------------------------------------------------------------------------------
 (8) _putch                                                1     1      0       0
 ---------------------------------------------------------------------------------
 (5) ___lwmod                                              5     1      4     161
                                              0 COMMON     5     1      4
 ---------------------------------------------------------------------------------
 (5) ___lwdiv                                              7     3      4     164
                                              0 COMMON     7     3      4
 ---------------------------------------------------------------------------------
 (4) _read_prec_or_width                                   6     4      2     276
                                              6 COMMON     6     4      2
                             ___wmul
 ---------------------------------------------------------------------------------
 (5) ___wmul                                               6     2      4      94
                                              0 COMMON     6     2      4
 ---------------------------------------------------------------------------------
 (1) _lcd_init                                             2     2      0      29
                                              3 COMMON     2     2      0
                         _lcdCommand
 ---------------------------------------------------------------------------------
 (2) _lcdCommand                                           3     3      0      29
                                              0 COMMON     3     3      0
 ---------------------------------------------------------------------------------
 (1) _lcdSendString                                        1     0      1      76
                                              3 COMMON     1     0      1
                    _lcdSendDataByte
 ---------------------------------------------------------------------------------
 (2) _lcdSendDataByte                                      3     3      0      29
                                              0 COMMON     3     3      0
 ---------------------------------------------------------------------------------
 (1) _adc_read_an0                                         3     1      2       0
                                              0 COMMON     3     1      2
 ---------------------------------------------------------------------------------
 (1) _adc_init                                             1     1      0       0
                                              0 COMMON     1     1      0
 ---------------------------------------------------------------------------------
 (1) ___lmul                                              13     5      8      94
                                              0 COMMON    13     5      8
 ---------------------------------------------------------------------------------
 (1) ___aldiv                                             15     7      8     302
                                             13 COMMON     1     1      0
                                              0 BANK0     14     6      8
                             ___lmul (ARG)
 ---------------------------------------------------------------------------------
 Estimated maximum stack depth 8
 ---------------------------------------------------------------------------------

 Call Graph Graphs:

 _main (ROOT)
   ___aldiv
     ___lmul (ARG)
   ___lmul
   _adc_init
   _adc_read_an0
   _lcdCommand
   _lcdSendString
     _lcdSendDataByte
   _lcd_init
     _lcdCommand
   _sprintf
     _vfprintf
       _vfpfcnvrt
         _fputc
           _putch
         _read_prec_or_width
           ___wmul
         _utoa
           ___lwdiv
           ___lwmod
           _pad
             _fputc
             _fputs
               _fputc

Address spaces:
Name               Size   Autos  Total    Usage
BITCOMMON           14      0       0      0.0%
BITBANK0            80      0       0      0.0%
BITBANK1            80      0       0      0.0%
BITBANK3            96      0       0      0.0%
BITBANK2            96      0       0      0.0%
COMMON              14     14      14    100.0%
BANK0               80     60      65     81.2%
BANK1               80     22      54     67.5%
BANK3               96      0       0      0.0%
BANK2               96      0       0      0.0%
STACK                0      0       0      0.0%
DATA                 0      0     133      0.0%


Microchip Technology PIC Macro Assembler V3.10 build 20250813170317 
Symbol Table                                                                                   Tue Nov 25 23:11:30 2025

                         pc 0002                          l30 02AF                          l33 0391  
                        l42 026E                          l27 02CA                          l45 0276  
                        l39 0294                          l48 0280                          fsr 0004  
       ___wmul@multiplicand 0072                         l143 031D                         l208 060A  
                       l145 0335                         l218 068E                         l157 0451  
                       l423 040B                         l433 03C9                         l606 0310  
                       l624 04BE                         l627 04E6                         l645 04A4  
                       l629 04F7                         l637 0560                         l662 02ED  
                       l655 05F5                         l674 0728                         l682 0360  
                       l685 0257                         u600 0360                         u601 035F  
                       u610 0317                         u611 0316                         u710 0407  
                       u550 0695                         u711 0406                         u551 0694  
                       u640 0331                         u720 0398                         u560 069B  
                       u800 04E6                         u641 0330                         u625 031E  
                       u705 03FB                         u721 0397                         u561 069A  
                       u801 04E5                         u650 03D2                         u570 06BA  
                       u810 04EC                         u635 0325                         u651 03D1  
                       u571 06B9                         u811 04EB                         u740 03A8  
                       u580 06EC                         u820 0545                         u900 02EB  
                       u741 03A7                         u581 06EB                         u805 04E2  
                       u821 0544                         u901 02EA                         u910 0294  
                       u670 03E2                         u750 03B2                         u590 070D  
                       u830 054B                         u911 0293                         u671 03E1  
                       u751 03B1                         u735 039C                         u831 054A  
                       u920 027A                         u840 0550                         u921 0279  
                       u665 03D6                         u585 06E8                         u841 054F  
                       u930 0418                         u850 0463                         u690 03F3  
                       u770 03C5                         u931 0417                         u851 0462  
                       u691 03F2                         u771 03C4                         u755 03AE  
                       u860 04A0                         u780 04AB                         u941 0421  
                       u861 049F                         u685 03E3                         u765 03B9  
                       u781 04AA                         u942 0428                         u790 04BC  
                       u870 0572                         u943 042F                         u695 03EF  
                       u791 04BB                         u871 0571                         u880 0591  
                       u881 0590                         u970 0449                         u890 05A8  
                       u971 0448                         u955 0431                         u891 05A7  
                       u980 05FD                         u981 05FC                         u965 0439  
                       u990 060E                         u991 060D                         _pad 04A5  
                       fsr0 0004                         indf 0000                        l1101 03BF  
                      l1103 03C5                        l1031 06BA                        l1023 068F  
                      l1111 04B6                        l1033 06EC                        l1025 0695  
                      l1041 034B                        l1121 04EC                        l1113 04BC  
                      l1211 02BF                        l1051 0324                        l1027 069B  
                      l1043 0353                        l1115 04C1                        l1107 04A5  
                      l1131 050E                        l1123 04F8                        l1301 061B  
                      l1213 0296                        l1205 02B1                        l1053 032B  
                      l1045 0311                        l1061 03CC                        l1029 06A2  
                      l1037 0336                        l1117 04D0                        l1109 04AB  
                      l1141 0545                        l1133 0522                        l1125 04FC  
                      l1221 02CB                        l1311 063D                        l1303 0623  
                      l1215 0299                        l1207 02B4                        l1231 0361  
                      l1055 0331                        l1047 0313                        l1151 0454  
                      l1071 03E2                        l1063 03D2                        l1039 033B  
                      l1119 04D8                        l1143 054B                        l1135 0525  
                      l1127 0504                        l1223 02D0                        l1321 0670  
                      l1313 0646                        l1305 062B                        l1217 029B  
                      l1209 02B6                        l1241 038B                        l1233 036A  
                      l1049 0317                        l1161 04A0                        l1153 0463  
                      l1073 03F3                        l1065 03D5                        l1081 0407  
                      l1145 0550                        l1137 052B                        l1129 0508  
                      l1225 02DD                        l1315 0658                        l1307 062E  
                      l1323 0676                        l1251 0260                        l1219 02A4  
                      l1243 0281                        l1235 0370                        l1155 0475  
                      l1075 03F9                        l1067 03DC                        l1059 03CA  
                      l1091 03A2                        l1139 053E                        l1171 057A  
                      l1227 02EB                        l1331 0729                        l1325 067B  
                      l1317 0666                        l1309 0639                        l1253 026A  
                      l1245 0282                        l1237 0376                        l1157 048A  
                      l1149 0452                        l1077 03FA                        l1069 03DE  
                      l1093 03A4                        l1085 0392                        l1181 0597  
                      l1173 057E                        l1165 0561                        l1341 0748  
                      l1333 072D                        l1327 0686                        l1319 0667  
                      l1255 026F                        l1247 028A                        l1239 037C  
                      l1159 048F                        l1079 0401                        l1095 03A8  
                      l1087 0398                        l1183 059C                        l1175 058D  
                      l1167 0572                        l1271 02FA                        l1263 02EE  
                      l1351 07B6                        l1343 0782                        l1335 0732  
                      l1281 0418                        l1257 0273                        l1249 028C  
                      l1097 03B2                        l1089 039B                        l1193 05C9  
                      l1185 05A8                        l1177 0591                        l1169 0576  
                      l1273 0307                        l1265 02F2                        l1353 07CD  
                      l1345 078C                        l1337 0737                        l1291 05F6  
                      l1283 042F                        l1259 027A                        l1099 03B8  
                      l1187 05BB                        l1195 05D4                        l1179 0592  
                      l1267 02F6                        l1355 07D4                        l1347 0792  
                      l1339 073D                        l1293 05F9                        l1285 0438  
                      l1277 040C                        l1269 02F8                        l1349 07A9  
                      l1357 07DA                        l1295 05FD                        l1287 0449  
                      l1279 0414                        l1199 05DC                        l1297 060E  
                      l1299 0619                        ?_pad 0028                        STR_1 0009  
                      STR_2 0011                        u1000 062B                        u1001 062A  
                      u1020 063D                        u1021 063C                        u1015 0630  
                      u1040 0658                        u1041 0657                        u1035 063F  
                      u1107 0365                        u1060 0676                        u1061 0675  
                      u1045 0654                        u1117 0386                        u1070 067B  
                      u1071 067A                        u1055 0668                        u1127 02BB  
                      u1080 078C                        u1137 02C6                        u1081 078B  
                      u1147 02A0                        u1157 02AB                        u1085 0788  
                      u1167 0271                        u1177 026C                        u1097 07E2  
                      _dbuf 00A0                        _main 0729                        _prec 005E  
                      pad@i 002D                        pad@p 002B                        btemp 007E  
                      _utoa 04F8                 main@prev_mV 00D0                        start 0000  
                     ??_pad 007D             __end_of___aldiv 068F                       ?_main 0070  
                     ?_utoa 002F             __end_of___lwdiv 040C             __end_of___lwmod 03CA  
              vfpfcnvrt@fmt 003A                       _PORTD 0008                       _TRISA 0085  
                     _TRISB 0086                       _TRISD 0088         ___lmul@multiplicand 0074  
              _adc_read_an0 026F         lcdSendDataByte@data 0072                       _flags 0060  
       read_prec_or_width@c 0079         read_prec_or_width@n 007A                       _fputc 068F  
                     _fputs 0336                       btemp0 007E                       pad@fp 0028  
                     btemp1 007F                       _width 005C                       _putch 0257  
                     pclath 000A                       utoa@d 0031                       utoa@i 0036  
                     utoa@p 0035                       utoa@w 0033                       status 0003  
           _lcdSendDataByte 0295                       wtemp0 007E             __end_of_sprintf 0311  
           __initialization 07EC                __end_of_main 07EC                __end_of_utoa 0561  
                    ??_main 0059                      ??_utoa 007E  __end_of_read_prec_or_width 04A5  
                    _ADCON0 001F                      _ADCON1 009F                      ?_fputc 0070  
                    ?_fputs 0020                      _ADRESH 001E                      _ADRESL 009E  
                    ?_putch 0070            __end_of_adc_init 026F                vfprintf@cfmt 0047  
          __end_of_lcd_init 0392                      ___lmul 040C                   ??___aldiv 007D  
                    ___wmul 0311                   ??___lwdiv 0074                   ??___lwmod 0074  
      read_prec_or_width@ap 0077                      pad@buf 002A                      main@mV 00D4  
                    fputc@c 0070                      fputs@c 0025                      fputs@i 0026  
                    fputs@s 0020                      ltemp0a 0080                      putch@c 0070  
   __end_of_lcdSendDataByte 02B0                      ttemp0a 007F            __end_of_vfprintf 02EE  
                    utoa@fp 002F                   ??_sprintf 004C                      wtemp0a 007F  
   __end_of__initialization 07FC              __pcstackCOMMON 0070               __end_of_fputc 0729  
             __end_of_fputs 0361               __end_of_putch 0258                     ??_fputc 0074  
                   ??_fputs 0023                     ??_putch 0070                  __pbssBANK0 005C  
                __pbssBANK1 00A0       __end_of_lcdSendString 0295                  __pmaintext 0729  
                   ?___lmul 0070                  _lcdCommand 02B0                     ?___wmul 0070  
            ___lmul@product 0079                   ?_adc_init 0070            ?_lcdSendDataByte 0070  
                 ?_lcd_init 0070                  __stringtab 0003                     ___aldiv 05F6  
                   ___lwdiv 03CA                     ___lwmod 0392                   ?_vfprintf 0043  
                ??_adc_init 0070                     __ptext1 02EE                     __ptext2 02CB  
                   __ptext3 0561                     __ptext4 04F8                     __ptext5 04A5  
                   __ptext6 0336                     __ptext7 068F                     __ptext8 0257  
                   __ptext9 0392       read_prec_or_width@fmt 0076            ___aldiv@dividend 0024  
                   _sprintf 02EE                     main@raw 00D2                     clrloop0 0259  
                ??_lcd_init 0073        end_of_initialization 07FC                     fputc@fp 0072  
                   fputs@fp 0021          _read_prec_or_width 0452           __end_of_vfpfcnvrt 05F6  
          ___aldiv@quotient 002A         ?_read_prec_or_width 0076                 ?_lcdCommand 0070  
          vfpfcnvrt@convarg 003E                  ??_vfprintf 007E                   _PORTBbits 0006  
      ??_read_prec_or_width 0078                  main@buffer 00C0              __end_of___lmul 0452  
               vfpfcnvrt@ap 003B                 vfpfcnvrt@cp 0042                 vfpfcnvrt@fp 0038  
            __end_of___wmul 0336         start_initialization 07EC                 __end_of_pad 04F8  
               vfprintf@fmt 0045                    ??___lmul 0078                    ??___wmul 0074  
                 ___latbits 0002               ?_adc_read_an0 0070               __pcstackBANK0 0020  
             __pcstackBANK1 00C0            ___lwdiv@dividend 0072                    ?___aldiv 0020  
                  ?___lwdiv 0070                    ?___lwmod 0070                   __pstrings 0003  
             lcdCommand@cmd 0072              ??_adc_read_an0 0072            ___lwdiv@quotient 0074  
                  ?_sprintf 0048             ___aldiv@divisor 0020             ___aldiv@counter 0028  
            ___wmul@product 0074                   clear_ram0 0258           lcdSendString@addr 0073  
                  _GO_nDONE 00FA                ??_lcdCommand 0070                   _vfpfcnvrt 0561  
               __stringbase 0008           ___wmul@multiplier 0070           ___lmul@multiplier 0070  
        __end_of_lcdCommand 02CB               _lcdSendString 0281                  vfprintf@ap 0046  
                vfprintf@fp 0043                  ?_vfpfcnvrt 0038          __end_of__stringtab 0009  
                  _adc_init 0260                  sprintf@fmt 0049             ___lwdiv@divisor 0070  
           ___lwdiv@counter 0076                    __ptext10 03CA                    __ptext11 0452  
                  __ptext20 05F6                    __ptext12 0311                    __ptext13 0361  
                  __ptext14 02B0                    __ptext15 0281                    __ptext16 0295  
                  __ptext17 026F                    __ptext18 0260                    __ptext19 040C  
                  _lcd_init 0361              ?_lcdSendString 0073        __end_of_adc_read_an0 0281  
         ??_lcdSendDataByte 0070                    _vfprintf 02CB                   sprintf@ap 004D  
          ___lwmod@dividend 0072                   stringcode 0003                 ??_vfpfcnvrt 003C  
                  sprintf@f 004E                    sprintf@s 0048             ___lwmod@divisor 0070  
           ___lwmod@counter 0074                    stringdir 0003                    stringtab 0003  
              ___aldiv@sign 0029             ??_lcdSendString 0074  
